(lp0
(lp1
cnumpy.core.multiarray
scalar
p2
(cnumpy
dtype
p3
(S'f8'
p4
I0
I1
tp5
Rp6
(I3
S'<'
p7
NNNI-1
I-1
I0
tp8
bS'\x9a\x99\x99\x99\x99\x99\xb9?'
p9
tp10
Rp11
ag2
(g6
S'\xecQ\xb8\x1e\x85\xeb\xb1?'
p12
tp13
Rp14
ag2
(g6
S'R\xb8\x1e\x85\xebQ\xc8?'
p15
tp16
Rp17
ag2
(g6
S'\x9a\x99\x99\x99\x99\x99\xb9?'
p18
tp19
Rp20
ag2
(g6
S'{\x14\xaeG\xe1z\xb4?'
p21
tp22
Rp23
ag2
(g6
S'{\x14\xaeG\xe1z\xb4?'
p24
tp25
Rp26
ag2
(g6
S'{\x14\xaeG\xe1z\xc4?'
p27
tp28
Rp29
ag2
(g6
S'{\x14\xaeG\xe1z\xb4?'
p30
tp31
Rp32
ag2
(g6
S'\xb8\x1e\x85\xebQ\xb8\xae?'
p33
tp34
Rp35
ag2
(g6
S'\x1b\x9e^)\xcb\x10\xb7?'
p36
tp37
Rp38
ag2
(g6
S'\xecQ\xb8\x1e\x85\xeb\xb1?'
p39
tp40
Rp41
ag2
(g6
S'\xb8\x1e\x85\xebQ\xb8\xbe?'
p42
tp43
Rp44
ag2
(g6
S':\x92\xcb\x7fH\xbf\xc5?'
p45
tp46
Rp47
ag2
(g6
S'{\x14\xaeG\xe1z\xa4?'
p48
tp49
Rp50
ag2
(g6
S'{\x14\xaeG\xe1z\xb4?'
p51
tp52
Rp53
ag2
(g6
S'\x9a\x99\x99\x99\x99\x99\xb9?'
p54
tp55
Rp56
ag2
(g6
S'\x9a\x99\x99\x99\x99\x99\xb9?'
p57
tp58
Rp59
ag2
(g6
S'\n\xd7\xa3p=\n\xc7?'
p60
tp61
Rp62
ag2
(g6
S')\\\x8f\xc2\xf5(\xbc?'
p63
tp64
Rp65
ag2
(g6
S')\\\x8f\xc2\xf5(\xbc?'
p66
tp67
Rp68
ag2
(g6
S'\xa4p=\n\xd7\xa3\xc0?'
p69
tp70
Rp71
ag2
(g6
S'\xb8\x1e\x85\xebQ\xb8\xbe?'
p72
tp73
Rp74
ag2
(g6
S'\xf2\xb0Pk\x9aw\xc4?'
p75
tp76
Rp77
ag2
(g6
S'\xb8\x1e\x85\xebQ\xb8\xae?'
p78
tp79
Rp80
ag2
(g6
S'\xb8\x1e\x85\xebQ\xb8\xbe?'
p81
tp82
Rp83
ag2
(g6
S')\\\x8f\xc2\xf5(\xbc?'
p84
tp85
Rp86
ag2
(g6
S':#J{\x83/\xbc?'
p87
tp88
Rp89
ag2
(g6
S'R\xb8\x1e\x85\xebQ\xc8?'
p90
tp91
Rp92
ag2
(g6
S'\xecQ\xb8\x1e\x85\xeb\xc1?'
p93
tp94
Rp95
ag2
(g6
S'c\xeeZB>\xe8\xc1?'
p96
tp97
Rp98
ag2
(g6
S'R\xb8\x1e\x85\xebQ\xc8?'
p99
tp100
Rp101
ag2
(g6
S'R\xb8\x1e\x85\xebQ\xc8?'
p102
tp103
Rp104
ag2
(g6
S'{\x14\xaeG\xe1z\xc4?'
p105
tp106
Rp107
ag2
(g6
S'\xe1z\x14\xaeG\xe1\xca?'
p108
tp109
Rp110
ag2
(g6
S'h"lxz\xa5\xd0?'
p111
tp112
Rp113
ag2
(g6
S')\\\x8f\xc2\xf5(\xcc?'
p114
tp115
Rp116
ag2
(g6
S'q=\n\xd7\xa3p\xcd?'
p117
tp118
Rp119
ag2
(g6
S'333333\xc3?'
p120
tp121
Rp122
ag2
(g6
S'\xbc\x96\x90\x0fz6\xc3?'
p123
tp124
Rp125
ag2
(g6
S'333333\xc3?'
p126
tp127
Rp128
ag2
(g6
S'{\x14\xaeG\xe1z\xc4?'
p129
tp130
Rp131
ag2
(g6
S'{\x14\xaeG\xe1z\xc4?'
p132
tp133
Rp134
ag2
(g6
S':\x92\xcb\x7fH\xbf\xc5?'
p135
tp136
Rp137
ag2
(g6
S':\x92\xcb\x7fH\xbf\xc5?'
p138
tp139
Rp140
ag2
(g6
S'Tt$\x97\xff\x90\xd2?'
p141
tp142
Rp143
ag2
(g6
S'\x9a\x99\x99\x99\x99\x99\xc9?'
p144
tp145
Rp146
ag2
(g6
S"0\xbb'\x0f\x0b\xb5\xce?"
p147
tp148
Rp149
ag2
(g6
S'{\x14\xaeG\xe1z\xc4?'
p150
tp151
Rp152
ag2
(g6
S'\xa4p=\n\xd7\xa3\xc0?'
p153
tp154
Rp155
ag2
(g6
S':\x92\xcb\x7fH\xbf\xc5?'
p156
tp157
Rp158
ag2
(g6
S'\xda\x1b|a2U\xc8?'
p159
tp160
Rp161
ag2
(g6
S'q=\n\xd7\xa3p\xcd?'
p162
tp163
Rp164
ag2
(g6
S'R\xb8\x1e\x85\xebQ\xc8?'
p165
tp166
Rp167
ag2
(g6
S'H\xe1z\x14\xaeG\xd1?'
p168
tp169
Rp170
ag2
(g6
S'{\x14\xaeG\xe1z\xd4?'
p171
tp172
Rp173
ag2
(g6
S'H\xe1z\x14\xaeG\xd1?'
p174
tp175
Rp176
ag2
(g6
S'q=\n\xd7\xa3p\xcd?'
p177
tp178
Rp179
ag2
(g6
S')\\\x8f\xc2\xf5(\xcc?'
p180
tp181
Rp182
ag2
(g6
S'\x03x\x0b$(~\xc4?'
p183
tp184
Rp185
ag2
(g6
S'\x9a\x99\x99\x99\x99\x99\xc9?'
p186
tp187
Rp188
ag2
(g6
S'\x00\x00\x00\x00\x00\x00\xd0?'
p189
tp190
Rp191
ag2
(g6
S'\xc4\xb1.n\xa3\x01\xd0?'
p192
tp193
Rp194
ag2
(g6
S':\x92\xcb\x7fH\xbf\xc5?'
p195
tp196
Rp197
ag2
(g6
S'H\xe1z\x14\xaeG\xd1?'
p198
tp199
Rp200
ag2
(g6
S'ffffff\xd6?'
p201
tp202
Rp203
ag2
(g6
S'\xb1\xbf\xec\x9e<,\xcc?'
p204
tp205
Rp206
ag2
(g6
S'q=\n\xd7\xa3p\xcd?'
p207
tp208
Rp209
ag2
(g6
S'\n\xd7\xa3p=\n\xc7?'
p210
tp211
Rp212
ag2
(g6
S'"\xfd\xf6u\xe0\x9c\xc9?'
p213
tp214
Rp215
ag2
(g6
S'\xe1z\x14\xaeG\xe1\xca?'
p216
tp217
Rp218
ag2
(g6
S'Tt$\x97\xff\x90\xd2?'
p219
tp220
Rp221
ag2
(g6
S'x\x9c\xa2#\xb9\xfc\xcf?'
p222
tp223
Rp224
ag2
(g6
S'\xe1z\x14\xaeG\xe1\xca?'
p225
tp226
Rp227
ag2
(g6
S'\xbf}\x1d8gD\xd1?'
p228
tp229
Rp230
ag2
(g6
S'\x87\xa7W\xca2\xc4\xd5?'
p231
tp232
Rp233
ag2
(g6
S'\xe8\xd9\xac\xfa\\m\xcd?'
p234
tp235
Rp236
ag2
(g6
S'\xa4p=\n\xd7\xa3\xd0?'
p237
tp238
Rp239
ag2
(g6
S'q=\n\xd7\xa3p\xcd?'
p240
tp241
Rp242
ag2
(g6
S'H\xe1z\x14\xaeG\xd1?'
p243
tp244
Rp245
ag2
(g6
S'\xa1\xf81\xe6\xae%\xcc?'
p246
tp247
Rp248
ag2
(g6
S'\x8f\xc2\xf5(\\\x8f\xd2?'
p249
tp250
Rp251
ag2
(g6
S'\x9bU\x9f\xab\xad\xd8\xd3?'
p252
tp253
Rp254
ag2
(g6
S'\xecQ\xb8\x1e\x85\xeb\xd1?'
p255
tp256
Rp257
ag2
(g6
S'\xe0\xbe\x0e\x9c3\xa2\xd0?'
p258
tp259
Rp260
ag2
(g6
S'^K\xc8\x07=\x9b\xd9?'
p261
tp262
Rp263
ag2
(g6
S'[\xd3\xbc\xe3\x14\x1d\xd5?'
p264
tp265
Rp266
ag2
(g6
S'A\x82\xe2\xc7\x98\xbb\xce?'
p267
tp268
Rp269
ag2
(g6
S'\x0c\x93\xa9\x82QI\xd1?'
p270
tp271
Rp272
ag2
(g6
S'\x8f\xc2\xf5(\\\x8f\xd2?'
p273
tp274
Rp275
ag2
(g6
S'\xb8\x1e\x85\xebQ\xb8\xce?'
p276
tp277
Rp278
ag2
(g6
S'?\xc6\xdc\xb5\x84|\xd4?'
p279
tp280
Rp281
ag2
(g6
S'\xea\x95\xb2\x0cq\xac\xd7?'
p282
tp283
Rp284
ag2
(g6
S'\xbc\x96\x90\x0fz6\xd3?'
p285
tp286
Rp287
ag2
(g6
S'\x13\xf2A\xcff\xd5\xd3?'
p288
tp289
Rp290
ag2
(g6
S')\\\x8f\xc2\xf5(\xdc?'
p291
tp292
Rp293
ag2
(g6
S'\xab\xcf\xd5V\xec/\xd3?'
p294
tp295
Rp296
ag2
(g6
S'\xb8\x1e\x85\xebQ\xb8\xce?'
p297
tp298
Rp299
ag2
(g6
S"'\xa0\x89\xb0\xe1\xe9\xd1?"
p300
tp301
Rp302
ag2
(g6
S'r\xf9\x0f\xe9\xb7\xaf\xd7?'
p303
tp304
Rp305
ag2
(g6
S'\x00\x00\x00\x00\x00\x00\xd0?'
p306
tp307
Rp308
ag2
(g6
S'\xd7\xa3p=\n\xd7\xd3?'
p309
tp310
Rp311
ag2
(g6
S'\x93:\x01M\x84\r\xd7?'
p312
tp313
Rp314
ag2
(g6
S'\xa7\xe8H.\xff!\xd5?'
p315
tp316
Rp317
ag2
(g6
S'\xc3\xf5(\\\x8f\xc2\xd5?'
p318
tp319
Rp320
ag2
(g6
S"e\xaa`TR'\xdc?"
p321
tp322
Rp323
ag2
(g6
S'\xa2\xb47\xf8\xc2d\xd6?'
p324
tp325
Rp326
ag2
(g6
S'o\x81\x04\xc5\x8f1\xd3?'
p327
tp328
Rp329
ag2
(g6
S'H\xe1z\x14\xaeG\xd1?'
p330
tp331
Rp332
ag2
(g6
S'\xd7\xa3p=\n\xd7\xd3?'
p333
tp334
Rp335
ag2
(g6
S'\xb0\x03\xe7\x8c(\xed\xd1?'
p336
tp337
Rp338
ag2
(g6
S'{\x14\xaeG\xe1z\xd4?'
p339
tp340
Rp341
ag2
(g6
S'\xce\x88\xd2\xde\xe0\x0b\xd7?'
p342
tp343
Rp344
ag2
(g6
S'\xda\x1b|a2U\xd8?'
p345
tp346
Rp347
ag2
(g6
S'\n\xd7\xa3p=\n\xd7?'
p348
tp349
Rp350
ag2
(g6
S'q=\n\xd7\xa3p\xdd?'
p351
tp352
Rp353
ag2
(g6
S'\xf6(\\\x8f\xc2\xf5\xd8?'
p354
tp355
Rp356
ag2
(g6
S'\xd7\xa3p=\n\xd7\xd3?'
p357
tp358
Rp359
ag2
(g6
S'\xecQ\xb8\x1e\x85\xeb\xd1?'
p360
tp361
Rp362
ag2
(g6
S'\x1f\x85\xebQ\xb8\x1e\xd5?'
p363
tp364
Rp365
ag2
(g6
S'\xb7b\x7f\xd9=y\xd4?'
p366
tp367
Rp368
ag2
(g6
S'ffffff\xd6?'
p369
tp370
Rp371
ag2
(g6
S'\xba\xda\x8a\xfde\xf7\xd8?'
p372
tp373
Rp374
ag2
(g6
S'\x8e\x06\xf0\x16HP\xd8?'
p375
tp376
Rp377
ag2
(g6
S'\n\xd7\xa3p=\n\xd7?'
p378
tp379
Rp380
ag2
(g6
S'\xcd\xcc\xcc\xcc\xcc\xcc\xdc?'
p381
tp382
Rp383
ag2
(g6
S'\xd5\xe7j+\xf6\x97\xd9?'
p384
tp385
Rp386
ag2
(g6
S'\xd7\xa3p=\n\xd7\xd3?'
p387
tp388
Rp389
ag2
(g6
S'333333\xd3?'
p390
tp391
Rp392
ag2
(g6
S'\xf6(\\\x8f\xc2\xf5\xd8?'
p393
tp394
Rp395
ag2
(g6
S'\xfeC\xfa\xed\xeb\xc0\xd5?'
p396
tp397
Rp398
ag2
(g6
S'\xf6(\\\x8f\xc2\xf5\xd8?'
p399
tp400
Rp401
ag2
(g6
S'\x02\xbc\x05\x12\x14?\xda?'
p402
tp403
Rp404
ag2
(g6
S'\xba\xda\x8a\xfde\xf7\xd8?'
p405
tp406
Rp407
ag2
(g6
S'\xa2\xb47\xf8\xc2d\xd6?'
p408
tp409
Rp410
ag2
(g6
S'\xc2\x17&S\x05\xa3\xe0?'
p411
tp412
Rp413
ag2
(g6
S'yX\xa85\xcd;\xda?'
p414
tp415
Rp416
ag2
(g6
S'\x1f\x85\xebQ\xb8\x1e\xd5?'
p417
tp418
Rp419
ag2
(g6
S't\xb5\x15\xfb\xcb\xee\xd1?'
p420
tp421
Rp422
ag2
(g6
S'\x16jM\xf3\x8eS\xd8?'
p423
tp424
Rp425
ag2
(g6
S'\x1f\x85\xebQ\xb8\x1e\xd5?'
p426
tp427
Rp428
ag2
(g6
S'\x1d\xc9\xe5?\xa4\xdf\xda?'
p429
tp430
Rp431
ag2
(g6
S'2w-!\x1f\xf4\xd8?'
p432
tp433
Rp434
ag2
(g6
S'R\xb8\x1e\x85\xebQ\xd8?'
p435
tp436
Rp437
ag2
(g6
S'\x9a\x99\x99\x99\x99\x99\xd9?'
p438
tp439
Rp440
ag2
(g6
S'f\x88c]\xdcF\xe1?'
p441
tp442
Rp443
ag2
(g6
S'\xfd\x87\xf4\xdb\xd7\x81\xdb?'
p444
tp445
Rp446
ag2
(g6
S'\x87\xa7W\xca2\xc4\xd5?'
p447
tp448
Rp449
ag2
(g6
S'\x87\xa7W\xca2\xc4\xd5?'
p450
tp451
Rp452
ag2
(g6
S'\x85\xebQ\xb8\x1e\x85\xdb?'
p453
tp454
Rp455
ag2
(g6
S'\xce\x88\xd2\xde\xe0\x0b\xd7?'
p456
tp457
Rp458
ag2
(g6
S'\x9a\x99\x99\x99\x99\x99\xd9?'
p459
tp460
Rp461
ag2
(g6
S'\x9a\x99\x99\x99\x99\x99\xd9?'
p462
tp463
Rp464
ag2
(g6
S'"\xfd\xf6u\xe0\x9c\xd9?'
p465
tp466
Rp467
ag2
(g6
S'm\xc5\xfe\xb2{\xf2\xd8?'
p468
tp469
Rp470
ag2
(g6
S'\xe1z\x14\xaeG\xe1\xe2?'
p471
tp472
Rp473
ag2
(g6
S'\xe1z\x14\xaeG\xe1\xda?'
p474
tp475
Rp476
ag2
(g6
S'\xc19#J{\x83\xdb?'
p477
tp478
Rp479
ag2
(g6
S'\x1f\x85\xebQ\xb8\x1e\xd5?'
p480
tp481
Rp482
ag2
(g6
S'\x91~\xfb:p\xce\xdc?'
p483
tp484
Rp485
ag2
(g6
S'\xe1z\x14\xaeG\xe1\xda?'
p486
tp487
Rp488
ag2
(g6
S'\t\x1b\x9e^)\xcb\xdc?'
p489
tp490
Rp491
ag2
(g6
S'^K\xc8\x07=\x9b\xd9?'
p492
tp493
Rp494
ag2
(g6
S'\xed\r\xbe0\x99*\xdc?'
p495
tp496
Rp497
ag2
(g6
S'\x9a\x99\x99\x99\x99\x99\xd9?'
p498
tp499
Rp500
ag2
(g6
S'q\x1b\r\xe0-\x90\xe2?'
p501
tp502
Rp503
ag2
(g6
S'\x02\xbc\x05\x12\x14?\xda?'
p504
tp505
Rp506
ag2
(g6
S'=\n\xd7\xa3p=\xda?'
p507
tp508
Rp509
ag2
(g6
S'ffffff\xd6?'
p510
tp511
Rp512
ag2
(g6
S'\x98\xdd\x93\x87\x85Z\xdf?'
p513
tp514
Rp515
ag2
(g6
S'\x85\xebQ\xb8\x1e\x85\xdb?'
p516
tp517
Rp518
ag2
(g6
S'\xcd\xcc\xcc\xcc\xcc\xcc\xdc?'
p519
tp520
Rp521
ag2
(g6
S'\x0eO\xaf\x94e\x88\xdb?'
p522
tp523
Rp524
ag2
(g6
S'\xcd\xcc\xcc\xcc\xcc\xcc\xdc?'
p525
tp526
Rp527
ag2
(g6
S'\xa1\xf81\xe6\xae%\xdc?'
p528
tp529
Rp530
ag2
(g6
S'\xe1z\x14\xaeG\xe1\xe2?'
p531
tp532
Rp533
ag2
(g6
S'\xa1\xf81\xe6\xae%\xdc?'
p534
tp535
Rp536
ag2
(g6
S'=\n\xd7\xa3p=\xda?'
p537
tp538
Rp539
ag2
(g6
S'\x9a\x99\x99\x99\x99\x99\xd9?'
p540
tp541
Rp542
ag2
(g6
S'\x86\xc9T\xc1\xa8\xa4\xe0?'
p543
tp544
Rp545
ag2
(g6
S'\xed\r\xbe0\x99*\xdc?'
p546
tp547
Rp548
ag2
(g6
S'\t\x1b\x9e^)\xcb\xdc?'
p549
tp550
Rp551
ag2
(g6
S'\x14\xaeG\xe1z\x14\xde?'
p552
tp553
Rp554
ag2
(g6
S'\xcd\xcc\xcc\xcc\xcc\xcc\xdc?'
p555
tp556
Rp557
ag2
(g6
S'\xd4+e\x19\xe2X\xdf?'
p558
tp559
Rp560
ag2
(g6
S'\xa3\x92:\x01M\x84\xe3?'
p561
tp562
Rp563
ag2
(g6
S'\xcd\xcc\xcc\xcc\xcc\xcc\xdc?'
p564
tp565
Rp566
ag2
(g6
S')\\\x8f\xc2\xf5(\xdc?'
p567
tp568
Rp569
ag2
(g6
S'\xa5,C\x1c\xeb\xe2\xda?'
p570
tp571
Rp572
ag2
(g6
S'\x98\xdd\x93\x87\x85Z\xdf?'
p573
tp574
Rp575
ag2
(g6
S'\xcd\xcc\xcc\xcc\xcc\xcc\xdc?'
p576
tp577
Rp578
ag2
(g6
S'\x14\xaeG\xe1z\x14\xde?'
p579
tp580
Rp581
ag2
(g6
S'4\x116<\xbdR\xe0?'
p582
tp583
Rp584
ag2
(g6
S'\x14\xaeG\xe1z\x14\xde?'
p585
tp586
Rp587
ag2
(g6
S'<N\xd1\x91\\\xfe\xdf?'
p588
tp589
Rp590
ag2
(g6
S'\x9a\x99\x99\x99\x99\x99\xe1?'
p591
tp592
Rp593
ag2
(g6
S'<N\xd1\x91\\\xfe\xdf?'
p594
tp595
Rp596
ag2
(g6
S'\xed\r\xbe0\x99*\xdc?'
p597
tp598
Rp599
ag2
(g6
S')\\\x8f\xc2\xf5(\xdc?'
p600
tp601
Rp602
ag2
(g6
S'\\\x8f\xc2\xf5(\\\xdf?'
p603
tp604
Rp605
ag2
(g6
S'R\xb8\x1e\x85\xebQ\xe0?'
p606
tp607
Rp608
ag2
(g6
S'I\x9d\x80&\xc2\x86\xdb?'
p609
tp610
Rp611
ag2
(g6
S'\xe2X\x17\xb7\xd1\x00\xe0?'
p612
tp613
Rp614
ag2
(g6
S'\xa4p=\n\xd7\xa3\xe0?'
p615
tp616
Rp617
ag2
(g6
S'\xb8@\x82\xe2\xc7\x98\xe1?'
p618
tp619
Rp620
ag2
(g6
S'\xe1z\x14\xaeG\xe1\xe2?'
p621
tp622
Rp623
ag2
(g6
S'p_\x07\xce\x19Q\xe0?'
p624
tp625
Rp626
ag2
(g6
S'\xac\x8b\xdbh\x00o\xdd?'
p627
tp628
Rp629
ag2
(g6
S'\xcd\xcc\xcc\xcc\xcc\xcc\xdc?'
p630
tp631
Rp632
ag2
(g6
S'p_\x07\xce\x19Q\xe0?'
p633
tp634
Rp635
ag2
(g6
S')\\\x8f\xc2\xf5(\xdc?'
p636
tp637
Rp638
ag2
(g6
S'\xcd\xcc\xcc\xcc\xcc\xcc\xdc?'
p639
tp640
Rp641
ag2
(g6
S'\xe2X\x17\xb7\xd1\x00\xe0?'
p642
tp643
Rp644
ag2
(g6
S'=\n\xd7\xa3p=\xe2?'
p645
tp646
Rp647
ag2
(g6
S'p_\x07\xce\x19Q\xe0?'
p648
tp649
Rp650
ag2
(g6
S'\xa3\x92:\x01M\x84\xe3?'
p651
tp652
Rp653
ag2
(g6
S'p_\x07\xce\x19Q\xe0?'
p654
tp655
Rp656
ag2
(g6
S'\x91~\xfb:p\xce\xdc?'
p657
tp658
Rp659
ag2
(g6
S'4\x116<\xbdR\xe0?'
p660
tp661
Rp662
ag2
(g6
S'\xc2\x17&S\x05\xa3\xe0?'
p663
tp664
Rp665
ag2
(g6
S'\\\x8f\xc2\xf5(\\\xdf?'
p666
tp667
Rp668
ag2
(g6
S'q=\n\xd7\xa3p\xdd?'
p669
tp670
Rp671
ag2
(g6
S'A\x82\xe2\xc7\x98\xbb\xde?'
p672
tp673
Rp674
ag2
(g6
S'\xf6(\\\x8f\xc2\xf5\xe0?'
p675
tp676
Rp677
ag2
(g6
S'\xf6(\\\x8f\xc2\xf5\xe0?'
p678
tp679
Rp680
ag2
(g6
S'\x8f\xc2\xf5(\\\x8f\xe2?'
p681
tp682
Rp683
ag2
(g6
S'\xf6(\\\x8f\xc2\xf5\xe0?'
p684
tp685
Rp686
ag2
(g6
S'\x91~\xfb:p\xce\xdc?'
p687
tp688
Rp689
ag2
(g6
S'\xe2X\x17\xb7\xd1\x00\xe0?'
p690
tp691
Rp692
ag2
(g6
S'\xa4p=\n\xd7\xa3\xe0?'
p693
tp694
Rp695
ag2
(g6
S'4\x116<\xbdR\xe0?'
p696
tp697
Rp698
ag2
(g6
S'\x14\xaeG\xe1z\x14\xde?'
p699
tp700
Rp701
ag2
(g6
S'*:\x92\xcb\x7fH\xe1?'
p702
tp703
Rp704
ag2
(g6
S'\xecQ\xb8\x1e\x85\xeb\xe1?'
p705
tp706
Rp707
ag2
(g6
S'f\x88c]\xdcF\xe1?'
p708
tp709
Rp710
ag2
(g6
S'\xb7b\x7f\xd9=y\xe4?'
p711
tp712
Rp713
ag2
(g6
S'\x9a\x99\x99\x99\x99\x99\xe1?'
p714
tp715
Rp716
ag2
(g6
S'\x14\xaeG\xe1z\x14\xde?'
p717
tp718
Rp719
ag2
(g6
S'\xa4p=\n\xd7\xa3\xe0?'
p720
tp721
Rp722
ag2
(g6
S'=\n\xd7\xa3p=\xe2?'
p723
tp724
Rp725
ag2
(g6
S'\\\x8f\xc2\xf5(\\\xdf?'
p726
tp727
Rp728
ag2
(g6
S'\\\x8f\xc2\xf5(\\\xdf?'
p729
tp730
Rp731
ag2
(g6
S'\x9a\x99\x99\x99\x99\x99\xe1?'
p732
tp733
Rp734
ag2
(g6
S'Q\xda\x1b|a2\xe3?'
p735
tp736
Rp737
ag2
(g6
S'f\x88c]\xdcF\xe1?'
p738
tp739
Rp740
ag2
(g6
S'\x99\xbb\x96\x90\x0fz\xe4?'
p741
tp742
Rp743
ag2
(g6
S'\xadi\xdeq\x8a\x8e\xe2?'
p744
tp745
Rp746
ag2
(g6
S' A\xf1c\xcc]\xdf?'
p747
tp748
Rp749
ag2
(g6
S'\xe1z\x14\xaeG\xe1\xe2?'
p750
tp751
Rp752
ag2
(g6
S'=\n\xd7\xa3p=\xe2?'
p753
tp754
Rp755
ag2
(g6
S'\xb8\x1e\x85\xebQ\xb8\xde?'
p756
tp757
Rp758
ag2
(g6
S' A\xf1c\xcc]\xdf?'
p759
tp760
Rp761
ag2
(g6
S'q\x1b\r\xe0-\x90\xe2?'
p762
tp763
Rp764
ag2
(g6
S'\xe1z\x14\xaeG\xe1\xe2?'
p765
tp766
Rp767
ag2
(g6
S'\x9a\x99\x99\x99\x99\x99\xe1?'
p768
tp769
Rp770
ag2
(g6
S'\x1f\x85\xebQ\xb8\x1e\xe5?'
p771
tp772
Rp773
ag2
(g6
S'333333\xe3?'
p774
tp775
Rp776
ag2
(g6
S'\xe2X\x17\xb7\xd1\x00\xe0?'
p777
tp778
Rp779
ag2
(g6
S'\xa3\x92:\x01M\x84\xe3?'
p780
tp781
Rp782
ag2
(g6
S'\x8f\xc2\xf5(\\\x8f\xe2?'
p783
tp784
Rp785
ag2
(g6
S'\xe2X\x17\xb7\xd1\x00\xe0?'
p786
tp787
Rp788
ag2
(g6
S'}\xd0\xb3Y\xf5\xb9\xde?'
p789
tp790
Rp791
ag2
(g6
S'\x15\x8cJ\xea\x044\xe3?'
p792
tp793
Rp794
ag2
(g6
S'gDio\xf0\x85\xe3?'
p795
tp796
Rp797
ag2
(g6
S'\xff!\xfd\xf6u\xe0\xe2?'
p798
tp799
Rp800
ag2
(g6
S'=,\xd4\x9a\xe6\x1d\xe5?'
p801
tp802
Rp803
ag2
(g6
S'333333\xe3?'
p804
tp805
Rp806
ag2
(g6
S'\xc2\x17&S\x05\xa3\xe0?'
p807
tp808
Rp809
ag2
(g6
S'\xa3\x92:\x01M\x84\xe3?'
p810
tp811
Rp812
ag2
(g6
S'\xa3\x92:\x01M\x84\xe3?'
p813
tp814
Rp815
ag2
(g6
S'\xf6(\\\x8f\xc2\xf5\xe0?'
p816
tp817
Rp818
ag2
(g6
S'\x14\xaeG\xe1z\x14\xde?'
p819
tp820
Rp821
ag2
(g6
S'\xc3\xd3+e\x19\xe2\xe2?'
p822
tp823
Rp824
ag2
(g6
S'\x8f\xc2\xf5(\\\x8f\xe2?'
p825
tp826
Rp827
ag2
(g6
S'\x9a\x99\x99\x99\x99\x99\xe1?'
p828
tp829
Rp830
ag2
(g6
S'S\x96!\x8euq\xe5?'
p831
tp832
Rp833
ag2
(g6
S'\x8f\xc2\xf5(\\\x8f\xe2?'
p834
tp835
Rp836
ag2
(g6
S'\x86\xc9T\xc1\xa8\xa4\xe0?'
p837
tp838
Rp839
ag2
(g6
S'\x85\xebQ\xb8\x1e\x85\xe3?'
p840
tp841
Rp842
ag2
(g6
S'\xa3\x92:\x01M\x84\xe3?'
p843
tp844
Rp845
ag2
(g6
S'\xee\xeb\xc09#J\xe1?'
p846
tp847
Rp848
ag2
(g6
S'\x00\x00\x00\x00\x00\x00\xe0?'
p849
tp850
Rp851
ag2
(g6
S'\x15\x8cJ\xea\x044\xe3?'
p852
tp853
Rp854
ag2
(g6
S'I\x9d\x80&\xc2\x86\xe3?'
p855
tp856
Rp857
ag2
(g6
S'R\xb8\x1e\x85\xebQ\xe0?'
p858
tp859
Rp860
ag2
(g6
S'q=\n\xd7\xa3p\xe5?'
p861
tp862
Rp863
ag2
(g6
S'333333\xe3?'
p864
tp865
Rp866
ag2
(g6
S'\xba\xda\x8a\xfde\xf7\xe0?'
p867
tp868
Rp869
ag2
(g6
S'G\x03x\x0b$(\xe4?'
p870
tp871
Rp872
ag2
(g6
S'\x13\xf2A\xcff\xd5\xe3?'
p873
tp874
Rp875
ag2
(g6
S'\xadi\xdeq\x8a\x8e\xe2?'
p876
tp877
Rp878
ag2
(g6
S' A\xf1c\xcc]\xdf?'
p879
tp880
Rp881
ag2
(g6
S'\xf7\xe4a\xa1\xd64\xe3?'
p882
tp883
Rp884
ag2
(g6
S'333333\xe3?'
p885
tp886
Rp887
ag2
(g6
S'\x8f\xc2\xf5(\\\x8f\xe2?'
p888
tp889
Rp890
ag2
(g6
S'q=\n\xd7\xa3p\xe5?'
p891
tp892
Rp893
ag2
(g6
S'\xf5JY\x868\xd6\xe3?'
p894
tp895
Rp896
ag2
(g6
S'\xb8@\x82\xe2\xc7\x98\xe1?'
p897
tp898
Rp899
ag2
(g6
S')\\\x8f\xc2\xf5(\xe4?'
p900
tp901
Rp902
ag2
(g6
S'\xd7\xa3p=\n\xd7\xe3?'
p903
tp904
Rp905
ag2
(g6
S'\xecQ\xb8\x1e\x85\xeb\xe1?'
p906
tp907
Rp908
ag2
(g6
S'p_\x07\xce\x19Q\xe0?'
p909
tp910
Rp911
ag2
(g6
S'\xf5JY\x868\xd6\xe3?'
p912
tp913
Rp914
ag2
(g6
S'\x0b\xb5\xa6y\xc7)\xe4?'
p915
tp916
Rp917
ag2
(g6
S'^K\xc8\x07=\x9b\xe1?'
p918
tp919
Rp920
ag2
(g6
S'\x1f\x85\xebQ\xb8\x1e\xe5?'
p921
tp922
Rp923
ag2
(g6
S'\x1f\x85\xebQ\xb8\x1e\xe5?'
p924
tp925
Rp926
ag2
(g6
S'=\n\xd7\xa3p=\xe2?'
p927
tp928
Rp929
ag2
(g6
S'\xaf%\xe4\x83\x9e\xcd\xe4?'
p930
tp931
Rp932
ag2
(g6
S'\xebs\xb5\x15\xfb\xcb\xe4?'
p933
tp934
Rp935
ag2
(g6
S'=\n\xd7\xa3p=\xe2?'
p936
tp937
Rp938
ag2
(g6
S' A\xf1c\xcc]\xdf?'
p939
tp940
Rp941
ag2
(g6
S'gDio\xf0\x85\xe3?'
p942
tp943
Rp944
ag2
(g6
S'\xd7\xa3p=\n\xd7\xe3?'
p945
tp946
Rp947
ag2
(g6
S'\x8f\xc2\xf5(\\\x8f\xe2?'
p948
tp949
Rp950
ag2
(g6
S'\x14\xaeG\xe1z\x14\xe6?'
p951
tp952
Rp953
ag2
(g6
S')\\\x8f\xc2\xf5(\xe4?'
p954
tp955
Rp956
ag2
(g6
S'\x8f\xc2\xf5(\\\x8f\xe2?'
p957
tp958
Rp959
ag2
(g6
S'\x99\xbb\x96\x90\x0fz\xe4?'
p960
tp961
Rp962
ag2
(g6
S'G\x03x\x0b$(\xe4?'
p963
tp964
Rp965
ag2
(g6
S'333333\xe3?'
p966
tp967
Rp968
ag2
(g6
S' A\xf1c\xcc]\xdf?'
p969
tp970
Rp971
ag2
(g6
S'gDio\xf0\x85\xe3?'
p972
tp973
Rp974
ag2
(g6
S'{\x14\xaeG\xe1z\xe4?'
p975
tp976
Rp977
ag2
(g6
S'f\x88c]\xdcF\xe1?'
p978
tp979
Rp980
ag2
(g6
S'\x14\xaeG\xe1z\x14\xe6?'
p981
tp982
Rp983
ag2
(g6
S'G\x03x\x0b$(\xe4?'
p984
tp985
Rp986
ag2
(g6
S'\xf6(\\\x8f\xc2\xf5\xe0?'
p987
tp988
Rp989
ag2
(g6
S'\xff!\xfd\xf6u\xe0\xe2?'
p990
tp991
Rp992
ag2
(g6
S'\xcd\xcc\xcc\xcc\xcc\xcc\xe4?'
p993
tp994
Rp995
ag2
(g6
S'\xed\r\xbe0\x99*\xe4?'
p996
tp997
Rp998
ag2
(g6
S'\xf6(\\\x8f\xc2\xf5\xe0?'
p999
tp1000
Rp1001
ag2
(g6
S')\\\x8f\xc2\xf5(\xe4?'
p1002
tp1003
Rp1004
ag2
(g6
S'2U0*\xa9\x13\xe6?'
p1005
tp1006
Rp1007
ag2
(g6
S'\x8f\xc2\xf5(\\\x8f\xe2?'
p1008
tp1009
Rp1010
ag2
(g6
S'\xf7\x06_\x98L\x15\xe6?'
p1011
tp1012
Rp1013
ag2
(g6
S'2U0*\xa9\x13\xe6?'
p1014
tp1015
Rp1016
ag2
(g6
S'\xb9\xfc\x87\xf4\xdb\xd7\xe3?'
p1017
tp1018
Rp1019
ag2
(g6
S'\x91~\xfb:p\xce\xe4?'
p1020
tp1021
Rp1022
ag2
(g6
S'\xebs\xb5\x15\xfb\xcb\xe4?'
p1023
tp1024
Rp1025
ag2
(g6
S'\x0b\xb5\xa6y\xc7)\xe4?'
p1026
tp1027
Rp1028
ag2
(g6
S'H\xe1z\x14\xaeG\xe1?'
p1029
tp1030
Rp1031
ag2
(g6
S'\xd7\xa3p=\n\xd7\xe3?'
p1032
tp1033
Rp1034
ag2
(g6
S'\xf7\x06_\x98L\x15\xe6?'
p1035
tp1036
Rp1037
ag2
(g6
S'[\xb1\xbf\xec\x9e<\xe2?'
p1038
tp1039
Rp1040
ag2
(g6
S'z6\xab>W[\xe7?'
p1041
tp1042
Rp1043
ag2
(g6
S'\xebs\xb5\x15\xfb\xcb\xe4?'
p1044
tp1045
Rp1046
ag2
(g6
S'q=\n\xd7\xa3p\xe5?'
p1047
tp1048
Rp1049
ag2
(g6
S'\xc3\xf5(\\\x8f\xc2\xe5?'
p1050
tp1051
Rp1052
ag2
(g6
S'G\x03x\x0b$(\xe4?'
p1053
tp1054
Rp1055
ag2
(g6
S'gDio\xf0\x85\xe3?'
p1056
tp1057
Rp1058
ag2
(g6
S'f\x88c]\xdcF\xe1?'
p1059
tp1060
Rp1061
ag2
(g6
S'\x0b\xb5\xa6y\xc7)\xe4?'
p1062
tp1063
Rp1064
ag2
(g6
S'ffffff\xe6?'
p1065
tp1066
Rp1067
ag2
(g6
S'\xc19#J{\x83\xe3?'
p1068
tp1069
Rp1070
ag2
(g6
S'\xd6\xc5m4\x80\xb7\xe6?'
p1071
tp1072
Rp1073
ag2
(g6
S'\xebs\xb5\x15\xfb\xcb\xe4?'
p1074
tp1075
Rp1076
ag2
(g6
S'\xd7\xa3p=\n\xd7\xe3?'
p1077
tp1078
Rp1079
ag2
(g6
S'\xf7\x06_\x98L\x15\xe6?'
p1080
tp1081
Rp1082
ag2
(g6
S'q=\n\xd7\xa3p\xe5?'
p1083
tp1084
Rp1085
ag2
(g6
S'\xf5JY\x868\xd6\xe3?'
p1086
tp1087
Rp1088
ag2
(g6
S'\xecQ\xb8\x1e\x85\xeb\xe1?'
p1089
tp1090
Rp1091
ag2
(g6
S'\x01\xde\x02\t\x8a\x1f\xe5?'
p1092
tp1093
Rp1094
ag2
(g6
S'z6\xab>W[\xe7?'
p1095
tp1096
Rp1097
ag2
(g6
S'\xa3\x92:\x01M\x84\xe3?'
p1098
tp1099
Rp1100
ag2
(g6
S'(~\x8c\xb9k\t\xe7?'
p1101
tp1102
Rp1103
ag2
(g6
S'\x14\xaeG\xe1z\x14\xe6?'
p1104
tp1105
Rp1106
ag2
(g6
S'q=\n\xd7\xa3p\xe5?'
p1107
tp1108
Rp1109
ag2
(g6
S'\xf7\x06_\x98L\x15\xe6?'
p1110
tp1111
Rp1112
ag2
(g6
S'\x84\rO\xaf\x94e\xe6?'
p1113
tp1114
Rp1115
ag2
(g6
S'\x99\xbb\x96\x90\x0fz\xe4?'
p1116
tp1117
Rp1118
ag2
(g6
S'\x9a\x99\x99\x99\x99\x99\xe1?'
p1119
tp1120
Rp1121
ag2
(g6
S'\x9bU\x9f\xab\xad\xd8\xe3?'
p1122
tp1123
Rp1124
ag2
(g6
S'\x14\xaeG\xe1z\x14\xe6?'
p1125
tp1126
Rp1127
ag2
(g6
S'o\x81\x04\xc5\x8f1\xe3?'
p1128
tp1129
Rp1130
ag2
(g6
S'\n\xd7\xa3p=\n\xe7?'
p1131
tp1132
Rp1133
ag2
(g6
S'\xa5N@\x13a\xc3\xe5?'
p1134
tp1135
Rp1136
ag2
(g6
S'gDio\xf0\x85\xe3?'
p1137
tp1138
Rp1139
ag2
(g6
S'+\x18\x95\xd4\th\xe6?'
p1140
tp1141
Rp1142
ag2
(g6
S'\xe0\x9c\x11\xa5\xbd\xc1\xe5?'
p1143
tp1144
Rp1145
ag2
(g6
S')\\\x8f\xc2\xf5(\xe4?'
p1146
tp1147
Rp1148
ag2
(g6
S'\xadi\xdeq\x8a\x8e\xe2?'
p1149
tp1150
Rp1151
ag2
(g6
S'\x0b\xb5\xa6y\xc7)\xe4?'
p1152
tp1153
Rp1154
ag2
(g6
S'\rq\xac\x8b\xdbh\xe6?'
p1155
tp1156
Rp1157
ag2
(g6
S'333333\xe3?'
p1158
tp1159
Rp1160
ag2
(g6
S"\xec/\xbb'\x0f\x0b\xe7?"
p1161
tp1162
Rp1163
ag2
(g6
S'{\x14\xaeG\xe1z\xe4?'
p1164
tp1165
Rp1166
ag2
(g6
S'\xd7\xa3p=\n\xd7\xe3?'
p1167
tp1168
Rp1169
ag2
(g6
S'\x9aw\x9c\xa2#\xb9\xe6?'
p1170
tp1171
Rp1172
ag2
(g6
S'=,\xd4\x9a\xe6\x1d\xe5?'
p1173
tp1174
Rp1175
ag2
(g6
S'\xed\r\xbe0\x99*\xe4?'
p1176
tp1177
Rp1178
ag2
(g6
S'\xf5JY\x868\xd6\xe3?'
p1179
tp1180
Rp1181
ag2
(g6
S'?\xc6\xdc\xb5\x84|\xe4?'
p1182
tp1183
Rp1184
ag2
(g6
S'}\xd0\xb3Y\xf5\xb9\xe6?'
p1185
tp1186
Rp1187
ag2
(g6
S'\xd7\xa3p=\n\xd7\xe3?'
p1188
tp1189
Rp1190
ag2
(g6
S'p_\x07\xce\x19Q\xe8?'
p1191
tp1192
Rp1193
ag2
(g6
S'\x8f\xe4\xf2\x1f\xd2o\xe5?'
p1194
tp1195
Rp1196
ag2
(g6
S']m\xc5\xfe\xb2{\xe4?'
p1197
tp1198
Rp1199
ag2
(g6
S'ffffff\xe6?'
p1200
tp1201
Rp1202
ag2
(g6
S'2U0*\xa9\x13\xe6?'
p1203
tp1204
Rp1205
ag2
(g6
S'\xc3\xf5(\\\x8f\xc2\xe5?'
p1206
tp1207
Rp1208
ag2
(g6
S'\xc3\xd3+e\x19\xe2\xe2?'
p1209
tp1210
Rp1211
ag2
(g6
S'{\x14\xaeG\xe1z\xe4?'
p1212
tp1213
Rp1214
ag2
(g6
S'ffffff\xe6?'
p1215
tp1216
Rp1217
ag2
(g6
S'\x99\xbb\x96\x90\x0fz\xe4?'
p1218
tp1219
Rp1220
ag2
(g6
S'p_\x07\xce\x19Q\xe8?'
p1221
tp1222
Rp1223
ag2
(g6
S'\xe0\x9c\x11\xa5\xbd\xc1\xe5?'
p1224
tp1225
Rp1226
ag2
(g6
S'\x0b\xb5\xa6y\xc7)\xe4?'
p1227
tp1228
Rp1229
ag2
(g6
S'2U0*\xa9\x13\xe6?'
p1230
tp1231
Rp1232
ag2
(g6
S'\x1f\x85\xebQ\xb8\x1e\xe5?'
p1233
tp1234
Rp1235
ag2
(g6
S'\xe0\x9c\x11\xa5\xbd\xc1\xe5?'
p1236
tp1237
Rp1238
ag2
(g6
S']m\xc5\xfe\xb2{\xe4?'
p1239
tp1240
Rp1241
ag2
(g6
S'?\xc6\xdc\xb5\x84|\xe4?'
p1242
tp1243
Rp1244
ag2
(g6
S'\x14\xaeG\xe1z\x14\xe6?'
p1245
tp1246
Rp1247
ag2
(g6
S'\xcd\xcc\xcc\xcc\xcc\xcc\xe4?'
p1248
tp1249
Rp1250
ag2
(g6
S'\xa4p=\n\xd7\xa3\xe8?'
p1251
tp1252
Rp1253
ag2
(g6
S'2U0*\xa9\x13\xe6?'
p1254
tp1255
Rp1256
ag2
(g6
S'\xcd\xcc\xcc\xcc\xcc\xcc\xe4?'
p1257
tp1258
Rp1259
ag2
(g6
S'\x84\rO\xaf\x94e\xe6?'
p1260
tp1261
Rp1262
ag2
(g6
S'P\xfc\x18s\xd7\x12\xe6?'
p1263
tp1264
Rp1265
ag2
(g6
S'P\xfc\x18s\xd7\x12\xe6?'
p1266
tp1267
Rp1268
ag2
(g6
S'\x99\xbb\x96\x90\x0fz\xe4?'
p1269
tp1270
Rp1271
ag2
(g6
S'\xaf%\xe4\x83\x9e\xcd\xe4?'
p1272
tp1273
Rp1274
ag2
(g6
S'2U0*\xa9\x13\xe6?'
p1275
tp1276
Rp1277
ag2
(g6
S'\x14\xaeG\xe1z\x14\xe6?'
p1278
tp1279
Rp1280
ag2
(g6
S'p_\x07\xce\x19Q\xe8?'
p1281
tp1282
Rp1283
ag2
(g6
S'\xfeC\xfa\xed\xeb\xc0\xe5?'
p1284
tp1285
Rp1286
ag2
(g6
S'{\x14\xaeG\xe1z\xe4?'
p1287
tp1288
Rp1289
ag2
(g6
S'\n\xd7\xa3p=\n\xe7?'
p1290
tp1291
Rp1292
ag2
(g6
S'\x14\xaeG\xe1z\x14\xe6?'
p1293
tp1294
Rp1295
ag2
(g6
S'ffffff\xe6?'
p1296
tp1297
Rp1298
ag2
(g6
S'?\xc6\xdc\xb5\x84|\xe4?'
p1299
tp1300
Rp1301
ag2
(g6
S'{\x14\xaeG\xe1z\xe4?'
p1302
tp1303
Rp1304
ag2
(g6
S'\xd6\xc5m4\x80\xb7\xe6?'
p1305
tp1306
Rp1307
ag2
(g6
S'\xd7\xa3p=\n\xd7\xe3?'
p1308
tp1309
Rp1310
ag2
(g6
S'\xcc\xee\xc9\xc3B\xad\xe7?'
p1311
tp1312
Rp1313
ag2
(g6
S'\xfeC\xfa\xed\xeb\xc0\xe5?'
p1314
tp1315
Rp1316
ag2
(g6
S'\x9aw\x9c\xa2#\xb9\xe6?'
p1317
tp1318
Rp1319
ag2
(g6
S'\x9aw\x9c\xa2#\xb9\xe6?'
p1320
tp1321
Rp1322
ag2
(g6
S'\x90\xa0\xf81\xe6\xae\xe7?'
p1323
tp1324
Rp1325
ag2
(g6
S'\xcd\xcc\xcc\xcc\xcc\xcc\xe4?'
p1326
tp1327
Rp1328
ag2
(g6
S')\\\x8f\xc2\xf5(\xe4?'
p1329
tp1330
Rp1331
ag2
(g6
S'S\x96!\x8euq\xe5?'
p1332
tp1333
Rp1334
ag2
(g6
S'\xb8\x1e\x85\xebQ\xb8\xe6?'
p1335
tp1336
Rp1337
ag2
(g6
S'\xf5JY\x868\xd6\xe3?'
p1338
tp1339
Rp1340
ag2
(g6
S'\x00\x00\x00\x00\x00\x00\xe8?'
p1341
tp1342
Rp1343
ag2
(g6
S'\x14\xaeG\xe1z\x14\xe6?'
p1344
tp1345
Rp1346
ag2
(g6
S"\xec/\xbb'\x0f\x0b\xe7?"
p1347
tp1348
Rp1349
ag2
(g6
S'}\xd0\xb3Y\xf5\xb9\xe6?'
p1350
tp1351
Rp1352
ag2
(g6
S'\x84\rO\xaf\x94e\xe6?'
p1353
tp1354
Rp1355
ag2
(g6
S'\x14\xaeG\xe1z\x14\xe6?'
p1356
tp1357
Rp1358
ag2
(g6
S'\x0b\xb5\xa6y\xc7)\xe4?'
p1359
tp1360
Rp1361
ag2
(g6
S'\x01\xde\x02\t\x8a\x1f\xe5?'
p1362
tp1363
Rp1364
ag2
(g6
S'\xaeG\xe1z\x14\xae\xe7?'
p1365
tp1366
Rp1367
ag2
(g6
S'=,\xd4\x9a\xe6\x1d\xe5?'
p1368
tp1369
Rp1370
ag2
(g6
S'\xcc\xee\xc9\xc3B\xad\xe7?'
p1371
tp1372
Rp1373
ag2
(g6
S'(~\x8c\xb9k\t\xe7?'
p1374
tp1375
Rp1376
ag2
(g6
S'z6\xab>W[\xe7?'
p1377
tp1378
Rp1379
ag2
(g6
S'H\xbf}\x1d8g\xe6?'
p1380
tp1381
Rp1382
ag2
(g6
S'\x00\x00\x00\x00\x00\x00\xe8?'
p1383
tp1384
Rp1385
ag2
(g6
S'q=\n\xd7\xa3p\xe5?'
p1386
tp1387
Rp1388
ag2
(g6
S'{\x14\xaeG\xe1z\xe4?'
p1389
tp1390
Rp1391
ag2
(g6
S'\xc3\xf5(\\\x8f\xc2\xe5?'
p1392
tp1393
Rp1394
ag2
(g6
S'\xaeG\xe1z\x14\xae\xe7?'
p1395
tp1396
Rp1397
ag2
(g6
S'\xebs\xb5\x15\xfb\xcb\xe4?'
p1398
tp1399
Rp1400
ag2
(g6
S'4\x116<\xbdR\xe8?'
p1401
tp1402
Rp1403
ag2
(g6
S'\x84\rO\xaf\x94e\xe6?'
p1404
tp1405
Rp1406
ag2
(g6
S'>\xe8\xd9\xac\xfa\\\xe7?'
p1407
tp1408
Rp1409
ag2
(g6
S'\xcc\xee\xc9\xc3B\xad\xe7?'
p1410
tp1411
Rp1412
ag2
(g6
S'\xc2\x17&S\x05\xa3\xe8?'
p1413
tp1414
Rp1415
ag2
(g6
S'\xa5N@\x13a\xc3\xe5?'
p1416
tp1417
Rp1418
ag2
(g6
S')\\\x8f\xc2\xf5(\xe4?'
p1419
tp1420
Rp1421
ag2
(g6
S'ffffff\xe6?'
p1422
tp1423
Rp1424
ag2
(g6
S'\xaeG\xe1z\x14\xae\xe7?'
p1425
tp1426
Rp1427
ag2
(g6
S'\x8f\xe4\xf2\x1f\xd2o\xe5?'
p1428
tp1429
Rp1430
ag2
(g6
S'4\x116<\xbdR\xe8?'
p1431
tp1432
Rp1433
ag2
(g6
S'\n\xd7\xa3p=\n\xe7?'
p1434
tp1435
Rp1436
ag2
(g6
S'ffffff\xe6?'
p1437
tp1438
Rp1439
ag2
(g6
S'\xc4\xb1.n\xa3\x01\xe8?'
p1440
tp1441
Rp1442
ag2
(g6
S'\xa4p=\n\xd7\xa3\xe8?'
p1443
tp1444
Rp1445
ag2
(g6
S'\x1f\x85\xebQ\xb8\x1e\xe5?'
p1446
tp1447
Rp1448
ag2
(g6
S')\\\x8f\xc2\xf5(\xe4?'
p1449
tp1450
Rp1451
ag2
(g6
S'\x14\xaeG\xe1z\x14\xe6?'
p1452
tp1453
Rp1454
ag2
(g6
S'\xaeG\xe1z\x14\xae\xe7?'
p1455
tp1456
Rp1457
ag2
(g6
S'\xcd\xcc\xcc\xcc\xcc\xcc\xe4?'
p1458
tp1459
Rp1460
ag2
(g6
S'\xa4p=\n\xd7\xa3\xe8?'
p1461
tp1462
Rp1463
ag2
(g6
S'\xb8\x1e\x85\xebQ\xb8\xe6?'
p1464
tp1465
Rp1466
ag2
(g6
S'\n\xd7\xa3p=\n\xe7?'
p1467
tp1468
Rp1469
ag2
(g6
S'\xe2X\x17\xb7\xd1\x00\xe8?'
p1470
tp1471
Rp1472
ag2
(g6
S'<N\xd1\x91\\\xfe\xe7?'
p1473
tp1474
Rp1475
ag2
(g6
S'ffffff\xe6?'
p1476
tp1477
Rp1478
ag2
(g6
S'\x01\xde\x02\t\x8a\x1f\xe5?'
p1479
tp1480
Rp1481
ag2
(g6
S'ffffff\xe6?'
p1482
tp1483
Rp1484
ag2
(g6
S'\xcc\xee\xc9\xc3B\xad\xe7?'
p1485
tp1486
Rp1487
ag2
(g6
S'\xc3\xf5(\\\x8f\xc2\xe5?'
p1488
tp1489
Rp1490
ag2
(g6
S'H\xe1z\x14\xaeG\xe9?'
p1491
tp1492
Rp1493
ag2
(g6
S'(~\x8c\xb9k\t\xe7?'
p1494
tp1495
Rp1496
ag2
(g6
S'\x9aw\x9c\xa2#\xb9\xe6?'
p1497
tp1498
Rp1499
ag2
(g6
S'R\xb8\x1e\x85\xebQ\xe8?'
p1500
tp1501
Rp1502
ag2
(g6
S'\x08=\x9bU\x9f\xab\xe7?'
p1503
tp1504
Rp1505
ag2
(g6
S'z6\xab>W[\xe7?'
p1506
tp1507
Rp1508
ag2
(g6
S'?\xc6\xdc\xb5\x84|\xe4?'
p1509
tp1510
Rp1511
ag2
(g6
S'ffffff\xe6?'
p1512
tp1513
Rp1514
ag2
(g6
S'\x1e\xa7\xe8H.\xff\xe7?'
p1515
tp1516
Rp1517
ag2
(g6
S'q=\n\xd7\xa3p\xe5?'
p1518
tp1519
Rp1520
ag2
(g6
S'\xc2\x17&S\x05\xa3\xe8?'
p1521
tp1522
Rp1523
ag2
(g6
S'p_\x07\xce\x19Q\xe8?'
p1524
tp1525
Rp1526
ag2
(g6
S"\xec/\xbb'\x0f\x0b\xe7?"
p1527
tp1528
Rp1529
ag2
(g6
S'\x1e\xa7\xe8H.\xff\xe7?'
p1530
tp1531
Rp1532
ag2
(g6
S'\xaeG\xe1z\x14\xae\xe7?'
p1533
tp1534
Rp1535
ag2
(g6
S'\xa2\xb47\xf8\xc2d\xe6?'
p1536
tp1537
Rp1538
ag2
(g6
S'q=\n\xd7\xa3p\xe5?'
p1539
tp1540
Rp1541
ag2
(g6
S'ffffff\xe6?'
p1542
tp1543
Rp1544
ag2
(g6
S'\\\x8f\xc2\xf5(\\\xe7?'
p1545
tp1546
Rp1547
ag2
(g6
S'\xe0\x9c\x11\xa5\xbd\xc1\xe5?'
p1548
tp1549
Rp1550
ag2
(g6
S'H\xe1z\x14\xaeG\xe9?'
p1551
tp1552
Rp1553
ag2
(g6
S'\xcc\xee\xc9\xc3B\xad\xe7?'
p1554
tp1555
Rp1556
ag2
(g6
S'(~\x8c\xb9k\t\xe7?'
p1557
tp1558
Rp1559
ag2
(g6
S'*:\x92\xcb\x7fH\xe9?'
p1560
tp1561
Rp1562
ag2
(g6
S'\x1e\xa7\xe8H.\xff\xe7?'
p1563
tp1564
Rp1565
ag2
(g6
S'\xb8\x1e\x85\xebQ\xb8\xe6?'
p1566
tp1567
Rp1568
ag2
(g6
S'\x1f\x85\xebQ\xb8\x1e\xe5?'
p1569
tp1570
Rp1571
ag2
(g6
S'\xb8\x1e\x85\xebQ\xb8\xe6?'
p1572
tp1573
Rp1574
ag2
(g6
S'\xaeG\xe1z\x14\xae\xe7?'
p1575
tp1576
Rp1577
ag2
(g6
S'\x14\xaeG\xe1z\x14\xe6?'
p1578
tp1579
Rp1580
ag2
(g6
S'\xf6(\\\x8f\xc2\xf5\xe8?'
p1581
tp1582
Rp1583
ag2
(g6
S'(~\x8c\xb9k\t\xe7?'
p1584
tp1585
Rp1586
ag2
(g6
S'H\xbf}\x1d8g\xe6?'
p1587
tp1588
Rp1589
ag2
(g6
S'\xaeG\xe1z\x14\xae\xe7?'
p1590
tp1591
Rp1592
ag2
(g6
S'f\x88c]\xdcF\xe9?'
p1593
tp1594
Rp1595
ag2
(g6
S'ffffff\xe6?'
p1596
tp1597
Rp1598
ag2
(g6
S'\x84\rO\xaf\x94e\xe6?'
p1599
tp1600
Rp1601
ag2
(g6
S"\xec/\xbb'\x0f\x0b\xe7?"
p1602
tp1603
Rp1604
ag2
(g6
S'\x00\x00\x00\x00\x00\x00\xe8?'
p1605
tp1606
Rp1607
ag2
(g6
S'H\xbf}\x1d8g\xe6?'
p1608
tp1609
Rp1610
ag2
(g6
S'H\xe1z\x14\xaeG\xe9?'
p1611
tp1612
Rp1613
ag2
(g6
S'(~\x8c\xb9k\t\xe7?'
p1614
tp1615
Rp1616
ag2
(g6
S'\n\xd7\xa3p=\n\xe7?'
p1617
tp1618
Rp1619
ag2
(g6
S'\xa4p=\n\xd7\xa3\xe8?'
p1620
tp1621
Rp1622
ag2
(g6
S'p_\x07\xce\x19Q\xe8?'
p1623
tp1624
Rp1625
ag2
(g6
S'\xb8\x1e\x85\xebQ\xb8\xe6?'
p1626
tp1627
Rp1628
ag2
(g6
S'\x14\xaeG\xe1z\x14\xe6?'
p1629
tp1630
Rp1631
ag2
(g6
S"\xec/\xbb'\x0f\x0b\xe7?"
p1632
tp1633
Rp1634
ag2
(g6
S'z6\xab>W[\xe7?'
p1635
tp1636
Rp1637
ag2
(g6
S'ffffff\xe6?'
p1638
tp1639
Rp1640
ag2
(g6
S'f\x88c]\xdcF\xe9?'
p1641
tp1642
Rp1643
ag2
(g6
S'\xea\x95\xb2\x0cq\xac\xe7?'
p1644
tp1645
Rp1646
ag2
(g6
S'\x00\x00\x00\x00\x00\x00\xe8?'
p1647
tp1648
Rp1649
ag2
(g6
S'\x86\xc9T\xc1\xa8\xa4\xe8?'
p1650
tp1651
Rp1652
ag2
(g6
S'H\xe1z\x14\xaeG\xe9?'
p1653
tp1654
Rp1655
ag2
(g6
S'H\xbf}\x1d8g\xe6?'
p1656
tp1657
Rp1658
ag2
(g6
S'S\x96!\x8euq\xe5?'
p1659
tp1660
Rp1661
ag2
(g6
S'\xaeG\xe1z\x14\xae\xe7?'
p1662
tp1663
Rp1664
ag2
(g6
S'(~\x8c\xb9k\t\xe7?'
p1665
tp1666
Rp1667
ag2
(g6
S"\xec/\xbb'\x0f\x0b\xe7?"
p1668
tp1669
Rp1670
ag2
(g6
S'\xf6(\\\x8f\xc2\xf5\xe8?'
p1671
tp1672
Rp1673
ag2
(g6
S'\xb8\x1e\x85\xebQ\xb8\xe6?'
p1674
tp1675
Rp1676
ag2
(g6
S'\xb8\x1e\x85\xebQ\xb8\xe6?'
p1677
tp1678
Rp1679
ag2
(g6
S'\xaeG\xe1z\x14\xae\xe7?'
p1680
tp1681
Rp1682
ag2
(g6
S'\xb8@\x82\xe2\xc7\x98\xe9?'
p1683
tp1684
Rp1685
ag2
(g6
S'\xc3\xf5(\\\x8f\xc2\xe5?'
p1686
tp1687
Rp1688
ag2
(g6
S'ffffff\xe6?'
p1689
tp1690
Rp1691
ag2
(g6
S'\n\xd7\xa3p=\n\xe7?'
p1692
tp1693
Rp1694
ag2
(g6
S'\x14\xd0D\xd8\xf0\xf4\xe8?'
p1695
tp1696
Rp1697
ag2
(g6
S'ffffff\xe6?'
p1698
tp1699
Rp1700
ag2
(g6
S'\xe1z\x14\xaeG\xe1\xea?'
p1701
tp1702
Rp1703
ag2
(g6
S'\x90\xa0\xf81\xe6\xae\xe7?'
p1704
tp1705
Rp1706
ag2
(g6
S'\xcc\xee\xc9\xc3B\xad\xe7?'
p1707
tp1708
Rp1709
ag2
(g6
S'H\xe1z\x14\xaeG\xe9?'
p1710
tp1711
Rp1712
ag2
(g6
S'\x00\x00\x00\x00\x00\x00\xe8?'
p1713
tp1714
Rp1715
ag2
(g6
S'\\\x8f\xc2\xf5(\\\xe7?'
p1716
tp1717
Rp1718
ag2
(g6
S'ffffff\xe6?'
p1719
tp1720
Rp1721
ag2
(g6
S'\x86\xc9T\xc1\xa8\xa4\xe8?'
p1722
tp1723
Rp1724
ag2
(g6
S'\xaeG\xe1z\x14\xae\xe7?'
p1725
tp1726
Rp1727
ag2
(g6
S'\x14\xaeG\xe1z\x14\xe6?'
p1728
tp1729
Rp1730
ag2
(g6
S'H\xe1z\x14\xaeG\xe9?'
p1731
tp1732
Rp1733
ag2
(g6
S'\xb8\x1e\x85\xebQ\xb8\xe6?'
p1734
tp1735
Rp1736
ag2
(g6
S'>\xe8\xd9\xac\xfa\\\xe7?'
p1737
tp1738
Rp1739
ag2
(g6
S'\xf6(\\\x8f\xc2\xf5\xe8?'
p1740
tp1741
Rp1742
ag2
(g6
S'\x9a\x99\x99\x99\x99\x99\xe9?'
p1743
tp1744
Rp1745
ag2
(g6
S'\x84\rO\xaf\x94e\xe6?'
p1746
tp1747
Rp1748
ag2
(g6
S'\x87\xa7W\xca2\xc4\xe5?'
p1749
tp1750
Rp1751
ag2
(g6
S'>\xe8\xd9\xac\xfa\\\xe7?'
p1752
tp1753
Rp1754
ag2
(g6
S'z6\xab>W[\xe7?'
p1755
tp1756
Rp1757
ag2
(g6
S'\x14\xaeG\xe1z\x14\xe6?'
p1758
tp1759
Rp1760
ag2
(g6
S'\xf6(\\\x8f\xc2\xf5\xe8?'
p1761
tp1762
Rp1763
ag2
(g6
S"\xec/\xbb'\x0f\x0b\xe7?"
p1764
tp1765
Rp1766
ag2
(g6
S'\xaeG\xe1z\x14\xae\xe7?'
p1767
tp1768
Rp1769
ag2
(g6
S'H\xe1z\x14\xaeG\xe9?'
p1770
tp1771
Rp1772
ag2
(g6
S'H\xe1z\x14\xaeG\xe9?'
p1773
tp1774
Rp1775
ag2
(g6
S'F%u\x02\x9a\x08\xe7?'
p1776
tp1777
Rp1778
ag2
(g6
S'\xd6\xc5m4\x80\xb7\xe6?'
p1779
tp1780
Rp1781
ag2
(g6
S'\n\xd7\xa3p=\n\xe7?'
p1782
tp1783
Rp1784
ag2
(g6
S'\xa4p=\n\xd7\xa3\xe8?'
p1785
tp1786
Rp1787
ag2
(g6
S'\xb8\x1e\x85\xebQ\xb8\xe6?'
p1788
tp1789
Rp1790
ag2
(g6
S'\xf6(\\\x8f\xc2\xf5\xe8?'
p1791
tp1792
Rp1793
ag2
(g6
S'\x14\xaeG\xe1z\x14\xe6?'
p1794
tp1795
Rp1796
ag2
(g6
S'\x00\x00\x00\x00\x00\x00\xe8?'
p1797
tp1798
Rp1799
ag2
(g6
S'*:\x92\xcb\x7fH\xe9?'
p1800
tp1801
Rp1802
ag2
(g6
S'\xa4p=\n\xd7\xa3\xe8?'
p1803
tp1804
Rp1805
ag2
(g6
S'\\\x8f\xc2\xf5(\\\xe7?'
p1806
tp1807
Rp1808
ag2
(g6
S'H\xbf}\x1d8g\xe6?'
p1809
tp1810
Rp1811
ag2
(g6
S'\xf6(\\\x8f\xc2\xf5\xe8?'
p1812
tp1813
Rp1814
ag2
(g6
S'\x00\x00\x00\x00\x00\x00\xe8?'
p1815
tp1816
Rp1817
ag2
(g6
S'H\xbf}\x1d8g\xe6?'
p1818
tp1819
Rp1820
ag2
(g6
S'\xff!\xfd\xf6u\xe0\xea?'
p1821
tp1822
Rp1823
ag2
(g6
S'\xcc\xee\xc9\xc3B\xad\xe7?'
p1824
tp1825
Rp1826
ag2
(g6
S'>\xe8\xd9\xac\xfa\\\xe7?'
p1827
tp1828
Rp1829
ag2
(g6
S'*:\x92\xcb\x7fH\xe9?'
p1830
tp1831
Rp1832
ag2
(g6
S'\xadi\xdeq\x8a\x8e\xea?'
p1833
tp1834
Rp1835
ag2
(g6
S'\xb8\x1e\x85\xebQ\xb8\xe6?'
p1836
tp1837
Rp1838
ag2
(g6
S'\xb8\x1e\x85\xebQ\xb8\xe6?'
p1839
tp1840
Rp1841
ag2
(g6
S'\x00\x00\x00\x00\x00\x00\xe8?'
p1842
tp1843
Rp1844
ag2
(g6
S'\xa4p=\n\xd7\xa3\xe8?'
p1845
tp1846
Rp1847
ag2
(g6
S'\x9aw\x9c\xa2#\xb9\xe6?'
p1848
tp1849
Rp1850
ag2
(g6
S'=\n\xd7\xa3p=\xea?'
p1851
tp1852
Rp1853
ag2
(g6
S'\n\xd7\xa3p=\n\xe7?'
p1854
tp1855
Rp1856
ag2
(g6
S'>\xe8\xd9\xac\xfa\\\xe7?'
p1857
tp1858
Rp1859
ag2
(g6
S'\xecQ\xb8\x1e\x85\xeb\xe9?'
p1860
tp1861
Rp1862
ag2
(g6
S'\t\xf9\xa0g\xb3\xea\xe9?'
p1863
tp1864
Rp1865
ag2
(g6
S'\n\xd7\xa3p=\n\xe7?'
p1866
tp1867
Rp1868
ag2
(g6
S"\xec/\xbb'\x0f\x0b\xe7?"
p1869
tp1870
Rp1871
ag2
(g6
S' A\xf1c\xcc]\xe7?'
p1872
tp1873
Rp1874
ag2
(g6
S'\xa4p=\n\xd7\xa3\xe8?'
p1875
tp1876
Rp1877
ag2
(g6
S'\xb8\x1e\x85\xebQ\xb8\xe6?'
p1878
tp1879
Rp1880
ag2
(g6
S'\xecQ\xb8\x1e\x85\xeb\xe9?'
p1881
tp1882
Rp1883
ag2
(g6
S'z6\xab>W[\xe7?'
p1884
tp1885
Rp1886
ag2
(g6
S'\\\x8f\xc2\xf5(\\\xe7?'
p1887
tp1888
Rp1889
ag2
(g6
S'\x9a\x99\x99\x99\x99\x99\xe9?'
p1890
tp1891
Rp1892
ag2
(g6
S'f\x88c]\xdcF\xe9?'
p1893
tp1894
Rp1895
ag2
(g6
S'\\\x8f\xc2\xf5(\\\xe7?'
p1896
tp1897
Rp1898
ag2
(g6
S'\xb8\x1e\x85\xebQ\xb8\xe6?'
p1899
tp1900
Rp1901
ag2
(g6
S'\xaeG\xe1z\x14\xae\xe7?'
p1902
tp1903
Rp1904
ag2
(g6
S'\x00\x00\x00\x00\x00\x00\xe8?'
p1905
tp1906
Rp1907
ag2
(g6
S'\n\xd7\xa3p=\n\xe7?'
p1908
tp1909
Rp1910
ag2
(g6
S'\xe1z\x14\xaeG\xe1\xea?'
p1911
tp1912
Rp1913
ag2
(g6
S'\x9aw\x9c\xa2#\xb9\xe6?'
p1914
tp1915
Rp1916
ag2
(g6
S'\x00\x00\x00\x00\x00\x00\xe8?'
p1917
tp1918
Rp1919
ag2
(g6
S'\xf6(\\\x8f\xc2\xf5\xe8?'
p1920
tp1921
Rp1922
ag2
(g6
S'\t\xf9\xa0g\xb3\xea\xe9?'
p1923
tp1924
Rp1925
ag2
(g6
S'\\\x8f\xc2\xf5(\\\xe7?'
p1926
tp1927
Rp1928
ag2
(g6
S'+\x18\x95\xd4\th\xe6?'
p1929
tp1930
Rp1931
ag2
(g6
S'R\xb8\x1e\x85\xebQ\xe8?'
p1932
tp1933
Rp1934
ag2
(g6
S'\xc2\x17&S\x05\xa3\xe8?'
p1935
tp1936
Rp1937
ag2
(g6
S"\xec/\xbb'\x0f\x0b\xe7?"
p1938
tp1939
Rp1940
ag2
(g6
S'\x8f\xc2\xf5(\\\x8f\xea?'
p1941
tp1942
Rp1943
ag2
(g6
S'(~\x8c\xb9k\t\xe7?'
p1944
tp1945
Rp1946
ag2
(g6
S'\xa4p=\n\xd7\xa3\xe8?'
p1947
tp1948
Rp1949
ag2
(g6
S'H\xe1z\x14\xaeG\xe9?'
p1950
tp1951
Rp1952
ag2
(g6
S'\xecQ\xb8\x1e\x85\xeb\xe9?'
p1953
tp1954
Rp1955
ag2
(g6
S'\\\x8f\xc2\xf5(\\\xe7?'
p1956
tp1957
Rp1958
ag2
(g6
S'\n\xd7\xa3p=\n\xe7?'
p1959
tp1960
Rp1961
ag2
(g6
S'\xaeG\xe1z\x14\xae\xe7?'
p1962
tp1963
Rp1964
ag2
(g6
S'\xf6(\\\x8f\xc2\xf5\xe8?'
p1965
tp1966
Rp1967
ag2
(g6
S"\xec/\xbb'\x0f\x0b\xe7?"
p1968
tp1969
Rp1970
ag2
(g6
S'\x8f\xc2\xf5(\\\x8f\xea?'
p1971
tp1972
Rp1973
ag2
(g6
S'\x9aw\x9c\xa2#\xb9\xe6?'
p1974
tp1975
Rp1976
ag2
(g6
S'\xaeG\xe1z\x14\xae\xe7?'
p1977
tp1978
Rp1979
ag2
(g6
S'\xf6(\\\x8f\xc2\xf5\xe8?'
p1980
tp1981
Rp1982
ag2
(g6
S'\x9a\x99\x99\x99\x99\x99\xe9?'
p1983
tp1984
Rp1985
ag2
(g6
S'\xcc\xee\xc9\xc3B\xad\xe7?'
p1986
tp1987
Rp1988
ag2
(g6
S'z6\xab>W[\xe7?'
p1989
tp1990
Rp1991
ag2
(g6
S'\xaeG\xe1z\x14\xae\xe7?'
p1992
tp1993
Rp1994
ag2
(g6
S'\xc2\x17&S\x05\xa3\xe8?'
p1995
tp1996
Rp1997
ag2
(g6
S'\x00\x00\x00\x00\x00\x00\xe8?'
p1998
tp1999
Rp2000
ag2
(g6
S'=\n\xd7\xa3p=\xea?'
p2001
tp2002
Rp2003
ag2
(g6
S'\\\x8f\xc2\xf5(\\\xe7?'
p2004
tp2005
Rp2006
ag2
(g6
S'>\xe8\xd9\xac\xfa\\\xe7?'
p2007
tp2008
Rp2009
ag2
(g6
S'\x0c\x93\xa9\x82QI\xe9?'
p2010
tp2011
Rp2012
ag2
(g6
S"'\xa0\x89\xb0\xe1\xe9\xe9?"
p2013
tp2014
Rp2015
ag2
(g6
S'\\\x8f\xc2\xf5(\\\xe7?'
p2016
tp2017
Rp2018
ag2
(g6
S'>\xe8\xd9\xac\xfa\\\xe7?'
p2019
tp2020
Rp2021
ag2
(g6
S'\xaeG\xe1z\x14\xae\xe7?'
p2022
tp2023
Rp2024
ag2
(g6
S'\xc2\x17&S\x05\xa3\xe8?'
p2025
tp2026
Rp2027
ag2
(g6
S'\\\x8f\xc2\xf5(\\\xe7?'
p2028
tp2029
Rp2030
ag2
(g6
S'\xff!\xfd\xf6u\xe0\xea?'
p2031
tp2032
Rp2033
ag2
(g6
S'\xb8\x1e\x85\xebQ\xb8\xe6?'
p2034
tp2035
Rp2036
ag2
(g6
S'\xa4p=\n\xd7\xa3\xe8?'
p2037
tp2038
Rp2039
ag2
(g6
S'\x0c\x93\xa9\x82QI\xe9?'
p2040
tp2041
Rp2042
ag2
(g6
S'\xecQ\xb8\x1e\x85\xeb\xe9?'
p2043
tp2044
Rp2045
ag2
(g6
S'\xa4p=\n\xd7\xa3\xe8?'
p2046
tp2047
Rp2048
ag2
(g6
S'z6\xab>W[\xe7?'
p2049
tp2050
Rp2051
ag2
(g6
S'\xd8\x81sF\x94\xf6\xe8?'
p2052
tp2053
Rp2054
ag2
(g6
S'\x14\xd0D\xd8\xf0\xf4\xe8?'
p2055
tp2056
Rp2057
ag2
(g6
S'>\xe8\xd9\xac\xfa\\\xe7?'
p2058
tp2059
Rp2060
ag2
(g6
S'\xadi\xdeq\x8a\x8e\xea?'
p2061
tp2062
Rp2063
ag2
(g6
S'(~\x8c\xb9k\t\xe7?'
p2064
tp2065
Rp2066
ag2
(g6
S'\xb8@\x82\xe2\xc7\x98\xe9?'
p2067
tp2068
Rp2069
ag2
(g6
S'|\xf2\xb0Pk\x9a\xe9?'
p2070
tp2071
Rp2072
ag2
(g6
S'[\xb1\xbf\xec\x9e<\xea?'
p2073
tp2074
Rp2075
ag2
(g6
S'\xf6(\\\x8f\xc2\xf5\xe8?'
p2076
tp2077
Rp2078
ag2
(g6
S'\xe2X\x17\xb7\xd1\x00\xe8?'
p2079
tp2080
Rp2081
ag2
(g6
S'R\xb8\x1e\x85\xebQ\xe8?'
p2082
tp2083
Rp2084
ag2
(g6
S'R\xb8\x1e\x85\xebQ\xe8?'
p2085
tp2086
Rp2087
ag2
(g6
S'\x84\rO\xaf\x94e\xe6?'
p2088
tp2089
Rp2090
ag2
(g6
S'\t\xf9\xa0g\xb3\xea\xe9?'
p2091
tp2092
Rp2093
ag2
(g6
S'\xb8\x1e\x85\xebQ\xb8\xe6?'
p2094
tp2095
Rp2096
ag2
(g6
S'\x00\x00\x00\x00\x00\x00\xe8?'
p2097
tp2098
Rp2099
ag2
(g6
S'\xecQ\xb8\x1e\x85\xeb\xe9?'
p2100
tp2101
Rp2102
ag2
(g6
S'\xadi\xdeq\x8a\x8e\xea?'
p2103
tp2104
Rp2105
ag2
(g6
S'\x00\x00\x00\x00\x00\x00\xe8?'
p2106
tp2107
Rp2108
ag2
(g6
S'\\\x8f\xc2\xf5(\\\xe7?'
p2109
tp2110
Rp2111
ag2
(g6
S'R\xb8\x1e\x85\xebQ\xe8?'
p2112
tp2113
Rp2114
ag2
(g6
S'\xd8\x81sF\x94\xf6\xe8?'
p2115
tp2116
Rp2117
ag2
(g6
S'\xaeG\xe1z\x14\xae\xe7?'
p2118
tp2119
Rp2120
ag2
(g6
S'[\xb1\xbf\xec\x9e<\xea?'
p2121
tp2122
Rp2123
ag2
(g6
S'ffffff\xe6?'
p2124
tp2125
Rp2126
ag2
(g6
S'\x00\x00\x00\x00\x00\x00\xe8?'
p2127
tp2128
Rp2129
ag2
(g6
S'H\xe1z\x14\xaeG\xe9?'
p2130
tp2131
Rp2132
ag2
(g6
S'\x9a\x99\x99\x99\x99\x99\xe9?'
p2133
tp2134
Rp2135
ag2
(g6
S'\x00\x00\x00\x00\x00\x00\xe8?'
p2136
tp2137
Rp2138
ag2
(g6
S'\x00\x00\x00\x00\x00\x00\xe8?'
p2139
tp2140
Rp2141
ag2
(g6
S'\x90\xa0\xf81\xe6\xae\xe7?'
p2142
tp2143
Rp2144
ag2
(g6
S'f\x88c]\xdcF\xe9?'
p2145
tp2146
Rp2147
ag2
(g6
S'\x84\rO\xaf\x94e\xe6?'
p2148
tp2149
Rp2150
ag2
(g6
S'\x8f\xc2\xf5(\\\x8f\xea?'
p2151
tp2152
Rp2153
ag2
(g6
S'\xb8\x1e\x85\xebQ\xb8\xe6?'
p2154
tp2155
Rp2156
ag2
(g6
S'4\x116<\xbdR\xe8?'
p2157
tp2158
Rp2159
ag2
(g6
S'\xecQ\xb8\x1e\x85\xeb\xe9?'
p2160
tp2161
Rp2162
ag2
(g6
S'[\xb1\xbf\xec\x9e<\xea?'
p2163
tp2164
Rp2165
ag2
(g6
S'\\\x8f\xc2\xf5(\\\xe7?'
p2166
tp2167
Rp2168
ag2
(g6
S'\\\x8f\xc2\xf5(\\\xe7?'
p2169
tp2170
Rp2171
ag2
(g6
S'H\xe1z\x14\xaeG\xe9?'
p2172
tp2173
Rp2174
ag2
(g6
S'R\xb8\x1e\x85\xebQ\xe8?'
p2175
tp2176
Rp2177
ag2
(g6
S'>\xe8\xd9\xac\xfa\\\xe7?'
p2178
tp2179
Rp2180
ag2
(g6
S'Q\xda\x1b|a2\xeb?'
p2181
tp2182
Rp2183
ag2
(g6
S'\\\x8f\xc2\xf5(\\\xe7?'
p2184
tp2185
Rp2186
ag2
(g6
S'\xf6(\\\x8f\xc2\xf5\xe8?'
p2187
tp2188
Rp2189
ag2
(g6
S'\xd8\x81sF\x94\xf6\xe8?'
p2190
tp2191
Rp2192
ag2
(g6
S'[\xb1\xbf\xec\x9e<\xea?'
p2193
tp2194
Rp2195
ag2
(g6
S'\xa4p=\n\xd7\xa3\xe8?'
p2196
tp2197
Rp2198
ag2
(g6
S'\xe2X\x17\xb7\xd1\x00\xe8?'
p2199
tp2200
Rp2201
ag2
(g6
S'\xaeG\xe1z\x14\xae\xe7?'
p2202
tp2203
Rp2204
ag2
(g6
S'R\xb8\x1e\x85\xebQ\xe8?'
p2205
tp2206
Rp2207
ag2
(g6
S'R\xb8\x1e\x85\xebQ\xe8?'
p2208
tp2209
Rp2210
ag2
(g6
S'\xff!\xfd\xf6u\xe0\xea?'
p2211
tp2212
Rp2213
ag2
(g6
S'ffffff\xe6?'
p2214
tp2215
Rp2216
ag2
(g6
S'4\x116<\xbdR\xe8?'
p2217
tp2218
Rp2219
ag2
(g6
S'\xf6(\\\x8f\xc2\xf5\xe8?'
p2220
tp2221
Rp2222
ag2
(g6
S'yX\xa85\xcd;\xea?'
p2223
tp2224
Rp2225
ag2
(g6
S'\x00\x00\x00\x00\x00\x00\xe8?'
p2226
tp2227
Rp2228
ag2
(g6
S'\x98\xdd\x93\x87\x85Z\xe7?'
p2229
tp2230
Rp2231
ag2
(g6
S'R\xb8\x1e\x85\xebQ\xe8?'
p2232
tp2233
Rp2234
ag2
(g6
S'R\xb8\x1e\x85\xebQ\xe8?'
p2235
tp2236
Rp2237
ag2
(g6
S'\xe2X\x17\xb7\xd1\x00\xe8?'
p2238
tp2239
Rp2240
ag2
(g6
S'\xce\xaa\xcf\xd5V\xec\xe9?'
p2241
tp2242
Rp2243
ag2
(g6
S'\x84\rO\xaf\x94e\xe6?'
p2244
tp2245
Rp2246
ag2
(g6
S'R\xb8\x1e\x85\xebQ\xe8?'
p2247
tp2248
Rp2249
ag2
(g6
S'*:\x92\xcb\x7fH\xe9?'
p2250
tp2251
Rp2252
ag2
(g6
S'\t\xf9\xa0g\xb3\xea\xe9?'
p2253
tp2254
Rp2255
ag2
(g6
S'\xa4p=\n\xd7\xa3\xe8?'
p2256
tp2257
Rp2258
ag2
(g6
S'>\xe8\xd9\xac\xfa\\\xe7?'
p2259
tp2260
Rp2261
ag2
(g6
S'H\xe1z\x14\xaeG\xe9?'
p2262
tp2263
Rp2264
ag2
(g6
S'\xa4p=\n\xd7\xa3\xe8?'
p2265
tp2266
Rp2267
ag2
(g6
S'>\xe8\xd9\xac\xfa\\\xe7?'
p2268
tp2269
Rp2270
ag2
(g6
S'\xce\xaa\xcf\xd5V\xec\xe9?'
p2271
tp2272
Rp2273
ag2
(g6
S'z6\xab>W[\xe7?'
p2274
tp2275
Rp2276
ag2
(g6
S'\xf6(\\\x8f\xc2\xf5\xe8?'
p2277
tp2278
Rp2279
ag2
(g6
S'\x9a\x99\x99\x99\x99\x99\xe9?'
p2280
tp2281
Rp2282
ag2
(g6
S'=\n\xd7\xa3p=\xea?'
p2283
tp2284
Rp2285
ag2
(g6
S'\x00\x00\x00\x00\x00\x00\xe8?'
p2286
tp2287
Rp2288
ag2
(g6
S'\xa4p=\n\xd7\xa3\xe8?'
p2289
tp2290
Rp2291
ag2
(g6
S'R\xb8\x1e\x85\xebQ\xe8?'
p2292
tp2293
Rp2294
ag2
(g6
S'H\xe1z\x14\xaeG\xe9?'
p2295
tp2296
Rp2297
ag2
(g6
S'\xb8\x1e\x85\xebQ\xb8\xe6?'
p2298
tp2299
Rp2300
ag2
(g6
S'\x9a\x99\x99\x99\x99\x99\xe9?'
p2301
tp2302
Rp2303
ag2
(g6
S'(~\x8c\xb9k\t\xe7?'
p2304
tp2305
Rp2306
ag2
(g6
S'4\x116<\xbdR\xe8?'
p2307
tp2308
Rp2309
ag2
(g6
S'\xecQ\xb8\x1e\x85\xeb\xe9?'
p2310
tp2311
Rp2312
ag2
(g6
S'\xadi\xdeq\x8a\x8e\xea?'
p2313
tp2314
Rp2315
ag2
(g6
S'\x00\x00\x00\x00\x00\x00\xe8?'
p2316
tp2317
Rp2318
ag2
(g6
S'\x90\xa0\xf81\xe6\xae\xe7?'
p2319
tp2320
Rp2321
ag2
(g6
S'\xa4p=\n\xd7\xa3\xe8?'
p2322
tp2323
Rp2324
ag2
(g6
S'H\xe1z\x14\xaeG\xe9?'
p2325
tp2326
Rp2327
ag2
(g6
S'\xb8\x1e\x85\xebQ\xb8\xe6?'
p2328
tp2329
Rp2330
ag2
(g6
S'q\x1b\r\xe0-\x90\xea?'
p2331
tp2332
Rp2333
ag2
(g6
S'\xaeG\xe1z\x14\xae\xe7?'
p2334
tp2335
Rp2336
ag2
(g6
S'\x14\xd0D\xd8\xf0\xf4\xe8?'
p2337
tp2338
Rp2339
ag2
(g6
S'\xecQ\xb8\x1e\x85\xeb\xe9?'
p2340
tp2341
Rp2342
ag2
(g6
S"'\xa0\x89\xb0\xe1\xe9\xe9?"
p2343
tp2344
Rp2345
ag2
(g6
S'\xc2\x17&S\x05\xa3\xe8?'
p2346
tp2347
Rp2348
ag2
(g6
S'\xaeG\xe1z\x14\xae\xe7?'
p2349
tp2350
Rp2351
ag2
(g6
S'\x00\x00\x00\x00\x00\x00\xe8?'
p2352
tp2353
Rp2354
ag2
(g6
S'\xd8\x81sF\x94\xf6\xe8?'
p2355
tp2356
Rp2357
ag2
(g6
S'\\\x8f\xc2\xf5(\\\xe7?'
p2358
tp2359
Rp2360
ag2
(g6
S'H\xe1z\x14\xaeG\xe9?'
p2361
tp2362
Rp2363
ag2
(g6
S'\x14\xaeG\xe1z\x14\xe6?'
p2364
tp2365
Rp2366
aa(lp2367
(lp2368
g2
(g3
(S'f4'
p2369
I0
I1
tp2370
Rp2371
(I3
S'<'
p2372
NNNI-1
I-1
I0
tp2373
bS'9\xb4\xc8='
p2374
tp2375
Rp2376
aa(lp2377
g2
(g2371
S'*\\\x8f='
p2378
tp2379
Rp2380
aa(lp2381
g2
(g2371
S'\x12\x83@>'
p2382
tp2383
Rp2384
aa(lp2385
g2
(g2371
S'\xcd\xcc\xcc='
p2386
tp2387
Rp2388
aa(lp2389
g2
(g2371
S'\x0b\xd7\xa3='
p2390
tp2391
Rp2392
aa(lp2393
g2
(g2371
S'\n\xd7\xa3='
p2394
tp2395
Rp2396
aa(lp2397
g2
(g2371
S'\n\xd7#>'
p2398
tp2399
Rp2400
aa(lp2401
g2
(g2371
S'\n\xd7\xa3='
p2402
tp2403
Rp2404
aa(lp2405
g2
(g2371
S'\x90\xc2u='
p2406
tp2407
Rp2408
aa(lp2409
g2
(g2371
S'X9\xb4='
p2410
tp2411
Rp2412
aa(lp2413
g2
(g2371
S')\\\x8f='
p2414
tp2415
Rp2416
aa(lp2417
g2
(g2371
S'$\xdb\xf9='
p2418
tp2419
Rp2420
aa(lp2421
g2
(g2371
S'\xc4 0>'
p2422
tp2423
Rp2424
aa(lp2425
g2
(g2371
S'\x0b\xd7#='
p2426
tp2427
Rp2428
aa(lp2429
g2
(g2371
S'\n\xd7\xa3='
p2430
tp2431
Rp2432
aa(lp2433
g2
(g2371
S'\xcd\xcc\xcc='
p2434
tp2435
Rp2436
aa(lp2437
g2
(g2371
S'a\xe5\xd0='
p2438
tp2439
Rp2440
aa(lp2441
g2
(g2371
S'\xecQ8>'
p2442
tp2443
Rp2444
aa(lp2445
g2
(g2371
S'\xaeG\xe1='
p2446
tp2447
Rp2448
aa(lp2449
g2
(g2371
S'\x1c/\xdd='
p2450
tp2451
Rp2452
aa(lp2453
g2
(g2371
S'\xb9\x1e\x05>'
p2454
tp2455
Rp2456
aa(lp2457
g2
(g2371
S'#\xdb\xf9='
p2458
tp2459
Rp2460
aa(lp2461
g2
(g2371
S'T\xe3%>'
p2462
tp2463
Rp2464
aa(lp2465
g2
(g2371
S'\x90\xc2u='
p2466
tp2467
Rp2468
aa(lp2469
g2
(g2371
S'\x8f\xc2\xf5='
p2470
tp2471
Rp2472
aa(lp2473
g2
(g2371
S'\xaeG\xe1='
p2474
tp2475
Rp2476
aa(lp2477
g2
(g2371
S'\x87\x16\xd9='
p2478
tp2479
Rp2480
aa(lp2481
g2
(g2371
S']\x8fB>'
p2482
tp2483
Rp2484
aa(lp2485
g2
(g2371
S'\x95C\x0b>'
p2486
tp2487
Rp2488
aa(lp2489
g2
(g2371
S'sh\x11>'
p2490
tp2491
Rp2492
aa(lp2493
g2
(g2371
S'\xa6\x9bD>'
p2494
tp2495
Rp2496
aa(lp2497
g2
(g2371
S'\\\x8fB>'
p2498
tp2499
Rp2500
aa(lp2501
g2
(g2371
S'\xc0\xca!>'
p2502
tp2503
Rp2504
aa(lp2505
g2
(g2371
S'\xf4\xfdT>'
p2506
tp2507
Rp2508
aa(lp2509
g2
(g2371
S'\x94\x18\x84>'
p2510
tp2511
Rp2512
aa(lp2513
g2
(g2371
S'\xafGa>'
p2514
tp2515
Rp2516
aa(lp2517
g2
(g2371
S'\x1e\x85k>'
p2518
tp2519
Rp2520
aa(lp2521
g2
(g2371
S'\x99\x99\x19>'
p2522
tp2523
Rp2524
aa(lp2525
g2
(g2371
S'P\x8d\x17>'
p2526
tp2527
Rp2528
aa(lp2529
g2
(g2371
S'\x99\x99\x19>'
p2530
tp2531
Rp2532
aa(lp2533
g2
(g2371
S'\n\xd7#>'
p2534
tp2535
Rp2536
aa(lp2537
g2
(g2371
S'T\xe3%>'
p2538
tp2539
Rp2540
aa(lp2541
g2
(g2371
S'\xc5 0>'
p2542
tp2543
Rp2544
aa(lp2545
g2
(g2371
S'\xc4 0>'
p2546
tp2547
Rp2548
aa(lp2549
g2
(g2371
S'\xe2z\x94>'
p2550
tp2551
Rp2552
aa(lp2553
g2
(g2371
S'\xcc\xccL>'
p2554
tp2555
Rp2556
aa(lp2557
g2
(g2371
S'\xda\xcew>'
p2558
tp2559
Rp2560
aa(lp2561
g2
(g2371
S'\n\xd7#>'
p2562
tp2563
Rp2564
aa(lp2565
g2
(g2371
S'\xb9\x1e\x05>'
p2566
tp2567
Rp2568
aa(lp2569
g2
(g2371
S'\xc4 0>'
p2570
tp2571
Rp2572
aa(lp2573
g2
(g2371
S']\x8fB>'
p2574
tp2575
Rp2576
aa(lp2577
g2
(g2371
S'\xb3\x9do>'
p2578
tp2579
Rp2580
aa(lp2581
g2
(g2371
S'\\\x8fB>'
p2582
tp2583
Rp2584
aa(lp2585
g2
(g2371
S'q=\x8a>'
p2586
tp2587
Rp2588
aa(lp2589
g2
(g2371
S'0\xdd\xa4>'
p2590
tp2591
Rp2592
aa(lp2593
g2
(g2371
S'r=\x8a>'
p2594
tp2595
Rp2596
aa(lp2597
g2
(g2371
S'\xd5xi>'
p2598
tp2599
Rp2600
aa(lp2601
g2
(g2371
S'e;_>'
p2602
tp2603
Rp2604
aa(lp2605
g2
(g2371
S'\xc0\xca!>'
p2606
tp2607
Rp2608
aa(lp2609
g2
(g2371
S'\xcd\xccL>'
p2610
tp2611
Rp2612
aa(lp2613
g2
(g2371
S'%\x06\x81>'
p2614
tp2615
Rp2616
aa(lp2617
g2
(g2371
S'%\x06\x81>'
p2618
tp2619
Rp2620
aa(lp2621
g2
(g2371
S'\xc4 0>'
p2622
tp2623
Rp2624
aa(lp2625
g2
(g2371
S'L7\x89>'
p2626
tp2627
Rp2628
aa(lp2629
g2
(g2371
S'\x0e-\xb2>'
p2630
tp2631
Rp2632
aa(lp2633
g2
(g2371
S'\xafGa>'
p2634
tp2635
Rp2636
aa(lp2637
g2
(g2371
S'\xd5xi>'
p2638
tp2639
Rp2640
aa(lp2641
g2
(g2371
S'\xecQ8>'
p2642
tp2643
Rp2644
aa(lp2645
g2
(g2371
S'\xce\xccL>'
p2646
tp2647
Rp2648
aa(lp2649
g2
(g2371
S'>\nW>'
p2650
tp2651
Rp2652
aa(lp2653
g2
(g2371
S'\xe1z\x94>'
p2654
tp2655
Rp2656
aa(lp2657
g2
(g2371
S'%\x06\x81>'
p2658
tp2659
Rp2660
aa(lp2661
g2
(g2371
S'>\nW>'
p2662
tp2663
Rp2664
aa(lp2665
g2
(g2371
S'\xbaI\x8c>'
p2666
tp2667
Rp2668
aa(lp2669
g2
(g2371
S'{\x14\xae>'
p2670
tp2671
Rp2672
aa(lp2673
g2
(g2371
S'\xb3\x9do>'
p2674
tp2675
Rp2676
aa(lp2677
g2
(g2371
S'\xb8\x1e\x85>'
p2678
tp2679
Rp2680
aa(lp2681
g2
(g2371
S'\x1e\x85k>'
p2682
tp2683
Rp2684
aa(lp2685
g2
(g2371
S'p=\x8a>'
p2686
tp2687
Rp2688
aa(lp2689
g2
(g2371
S'\xaeGa>'
p2690
tp2691
Rp2692
aa(lp2693
g2
(g2371
S'\xe1z\x94>'
p2694
tp2695
Rp2696
aa(lp2697
g2
(g2371
S'R\xb8\x9e>'
p2698
tp2699
Rp2700
aa(lp2701
g2
(g2371
S'\x04V\x8e>'
p2702
tp2703
Rp2704
aa(lp2705
g2
(g2371
S'\xde$\x86>'
p2706
tp2707
Rp2708
aa(lp2709
g2
(g2371
S'\x83\xc0\xca>'
p2710
tp2711
Rp2712
aa(lp2713
g2
(g2371
S'\xc3\xf5\xa8>'
p2714
tp2715
Rp2716
aa(lp2717
g2
(g2371
S'\xfc\xa9q>'
p2718
tp2719
Rp2720
aa(lp2721
g2
(g2371
S'L7\x89>'
p2722
tp2723
Rp2724
aa(lp2725
g2
(g2371
S'\xe2z\x94>'
p2726
tp2727
Rp2728
aa(lp2729
g2
(g2371
S'\xda\xcew>'
p2730
tp2731
Rp2732
aa(lp2733
g2
(g2371
S'/\xdd\xa4>'
p2734
tp2735
Rp2736
aa(lp2737
g2
(g2371
S'\xc9v\xbe>'
p2738
tp2739
Rp2740
aa(lp2741
g2
(g2371
S'+\x87\x96>'
p2742
tp2743
Rp2744
aa(lp2745
g2
(g2371
S'R\xb8\x9e>'
p2746
tp2747
Rp2748
aa(lp2749
g2
(g2371
S'\xadG\xe1>'
p2750
tp2751
Rp2752
aa(lp2753
g2
(g2371
S'\xbe\x9f\x9a>'
p2754
tp2755
Rp2756
aa(lp2757
g2
(g2371
S'\x8f\xc2u>'
p2758
tp2759
Rp2760
aa(lp2761
g2
(g2371
S'Nb\x90>'
p2762
tp2763
Rp2764
aa(lp2765
g2
(g2371
S'~j\xbc>'
p2766
tp2767
Rp2768
aa(lp2769
g2
(g2371
S'J\x0c\x82>'
p2770
tp2771
Rp2772
aa(lp2773
g2
(g2371
S'R\xb8\x9e>'
p2774
tp2775
Rp2776
aa(lp2777
g2
(g2371
S'\xecQ\xb8>'
p2778
tp2779
Rp2780
aa(lp2781
g2
(g2371
S'x\xe9\xa6>'
p2782
tp2783
Rp2784
aa(lp2785
g2
(g2371
S'V\x0e\xad>'
p2786
tp2787
Rp2788
aa(lp2789
g2
(g2371
S'\x1cZ\xe4>'
p2790
tp2791
Rp2792
aa(lp2793
g2
(g2371
S'33\xb3>'
p2794
tp2795
Rp2796
aa(lp2797
g2
(g2371
S'\x99\x99\x99>'
p2798
tp2799
Rp2800
aa(lp2801
g2
(g2371
S'L7\x89>'
p2802
tp2803
Rp2804
aa(lp2805
g2
(g2371
S'-\xb2\x9d>'
p2806
tp2807
Rp2808
aa(lp2809
g2
(g2371
S')\\\x8f>'
p2810
tp2811
Rp2812
aa(lp2813
g2
(g2371
S'\n\xd7\xa3>'
p2814
tp2815
Rp2816
aa(lp2817
g2
(g2371
S'\xc8K\xb7>'
p2818
tp2819
Rp2820
aa(lp2821
g2
(g2371
S'7\x89\xc1>'
p2822
tp2823
Rp2824
aa(lp2825
g2
(g2371
S'\xc7K\xb7>'
p2826
tp2827
Rp2828
aa(lp2829
g2
(g2371
S'\xf9~\xea>'
p2830
tp2831
Rp2832
aa(lp2833
g2
(g2371
S'\x16\xae\xc7>'
p2834
tp2835
Rp2836
aa(lp2837
g2
(g2371
S'-\xb2\x9d>'
p2838
tp2839
Rp2840
aa(lp2841
g2
(g2371
S')\\\x8f>'
p2842
tp2843
Rp2844
aa(lp2845
g2
(g2371
S'\xc3\xf5\xa8>'
p2846
tp2847
Rp2848
aa(lp2849
g2
(g2371
S'/\xdd\xa4>'
p2850
tp2851
Rp2852
aa(lp2853
g2
(g2371
S'33\xb3>'
p2854
tp2855
Rp2856
aa(lp2857
g2
(g2371
S'\x15\xae\xc7>'
p2858
tp2859
Rp2860
aa(lp2861
g2
(g2371
S'\x81\x95\xc3>'
p2862
tp2863
Rp2864
aa(lp2865
g2
(g2371
S'\xecQ\xb8>'
p2866
tp2867
Rp2868
aa(lp2869
g2
(g2371
S'hf\xe6>'
p2870
tp2871
Rp2872
aa(lp2873
g2
(g2371
S'\xa9\xc6\xcb>'
p2874
tp2875
Rp2876
aa(lp2877
g2
(g2371
S'w\xbe\x9f>'
p2878
tp2879
Rp2880
aa(lp2881
g2
(g2371
S'u\x93\x98>'
p2882
tp2883
Rp2884
aa(lp2885
g2
(g2371
S'\xef\xa7\xc6>'
p2886
tp2887
Rp2888
aa(lp2889
g2
(g2371
S'\xa0\x1a\xaf>'
p2890
tp2891
Rp2892
aa(lp2893
g2
(g2371
S'\x14\xae\xc7>'
p2894
tp2895
Rp2896
aa(lp2897
g2
(g2371
S'`\xe5\xd0>'
p2898
tp2899
Rp2900
aa(lp2901
g2
(g2371
S'\xf0\xa7\xc6>'
p2902
tp2903
Rp2904
aa(lp2905
g2
(g2371
S'23\xb3>'
p2906
tp2907
Rp2908
aa(lp2909
g2
(g2371
S'\xef\xa7\x06?'
p2910
tp2911
Rp2912
aa(lp2913
g2
(g2371
S'\xaa\xf1\xd2>'
p2914
tp2915
Rp2916
aa(lp2917
g2
(g2371
S'\xe7\xfb\xa9>'
p2918
tp2919
Rp2920
aa(lp2921
g2
(g2371
S'\xdfO\x8d>'
p2922
tp2923
Rp2924
aa(lp2925
g2
(g2371
S'8\x89\xc1>'
p2926
tp2927
Rp2928
aa(lp2929
g2
(g2371
S'\xc2\xf5\xa8>'
p2930
tp2931
Rp2932
aa(lp2933
g2
(g2371
S'b\x10\xd8>'
p2934
tp2935
Rp2936
aa(lp2937
g2
(g2371
S'\x83\xc0\xca>'
p2938
tp2939
Rp2940
aa(lp2941
g2
(g2371
S']\x8f\xc2>'
p2942
tp2943
Rp2944
aa(lp2945
g2
(g2371
S'\xa9\xc6\xcb>'
p2946
tp2947
Rp2948
aa(lp2949
g2
(g2371
S'q=\n?'
p2950
tp2951
Rp2952
aa(lp2953
g2
(g2371
S'@5\xde>'
p2954
tp2955
Rp2956
aa(lp2957
g2
(g2371
S'V\x0e\xad>'
p2958
tp2959
Rp2960
aa(lp2961
g2
(g2371
S'|\x14\xae>'
p2962
tp2963
Rp2964
aa(lp2965
g2
(g2371
S'\xd2"\xdb>'
p2966
tp2967
Rp2968
aa(lp2969
g2
(g2371
S'\xc8K\xb7>'
p2970
tp2971
Rp2972
aa(lp2973
g2
(g2371
S'\xa8\xc6\xcb>'
p2974
tp2975
Rp2976
aa(lp2977
g2
(g2371
S'\xcc\xcc\xcc>'
p2978
tp2979
Rp2980
aa(lp2981
g2
(g2371
S'\xa8\xc6\xcb>'
p2982
tp2983
Rp2984
aa(lp2985
g2
(g2371
S'_\xba\xc9>'
p2986
tp2987
Rp2988
aa(lp2989
g2
(g2371
S'>\n\x17?'
p2990
tp2991
Rp2992
aa(lp2993
g2
(g2371
S'>\n\xd7>'
p2994
tp2995
Rp2996
aa(lp2997
g2
(g2371
S'\xf6(\xdc>'
p2998
tp2999
Rp3000
aa(lp3001
g2
(g2371
S'\xc3\xf5\xa8>'
p3002
tp3003
Rp3004
aa(lp3005
g2
(g2371
S'gf\xe6>'
p3006
tp3007
Rp3008
aa(lp3009
g2
(g2371
S'<\n\xd7>'
p3010
tp3011
Rp3012
aa(lp3013
g2
(g2371
S'ff\xe6>'
p3014
tp3015
Rp3016
aa(lp3017
g2
(g2371
S'\xf1\xd2\xcd>'
p3018
tp3019
Rp3020
aa(lp3021
g2
(g2371
S'\x89A\xe0>'
p3022
tp3023
Rp3024
aa(lp3025
g2
(g2371
S'\x84\xc0\xca>'
p3026
tp3027
Rp3028
aa(lp3029
g2
(g2371
S'\xbbt\x13?'
p3030
tp3031
Rp3032
aa(lp3033
g2
(g2371
S'\x18\xd9\xce>'
p3034
tp3035
Rp3036
aa(lp3037
g2
(g2371
S'\x86\xeb\xd1>'
p3038
tp3039
Rp3040
aa(lp3041
g2
(g2371
S'43\xb3>'
p3042
tp3043
Rp3044
aa(lp3045
g2
(g2371
S'l\xe7\xfb>'
p3046
tp3047
Rp3048
aa(lp3049
g2
(g2371
S'\xf6(\xdc>'
p3050
tp3051
Rp3052
aa(lp3053
g2
(g2371
S'B`\xe5>'
p3054
tp3055
Rp3056
aa(lp3057
g2
(g2371
S'\xf6(\xdc>'
p3058
tp3059
Rp3060
aa(lp3061
g2
(g2371
S'ff\xe6>'
p3062
tp3063
Rp3064
aa(lp3065
g2
(g2371
S'\xd4M\xe2>'
p3066
tp3067
Rp3068
aa(lp3069
g2
(g2371
S'+\x87\x16?'
p3070
tp3071
Rp3072
aa(lp3073
g2
(g2371
S'\xd3M\xe2>'
p3074
tp3075
Rp3076
aa(lp3077
g2
(g2371
S'\x85\xeb\xd1>'
p3078
tp3079
Rp3080
aa(lp3081
g2
(g2371
S'\xcc\xcc\xcc>'
p3082
tp3083
Rp3084
aa(lp3085
g2
(g2371
S'\x94\x18\x04?'
p3086
tp3087
Rp3088
aa(lp3089
g2
(g2371
S'\xafG\xe1>'
p3090
tp3091
Rp3092
aa(lp3093
g2
(g2371
S'\xb0r\xe8>'
p3094
tp3095
Rp3096
aa(lp3097
g2
(g2371
S'\xfc\xa9\xf1>'
p3098
tp3099
Rp3100
aa(lp3101
g2
(g2371
S'\x8bl\xe7>'
p3102
tp3103
Rp3104
aa(lp3105
g2
(g2371
S'\x92\xed\xfc>'
p3106
tp3107
Rp3108
aa(lp3109
g2
(g2371
S'\xf5(\x1c?'
p3110
tp3111
Rp3112
aa(lp3113
g2
(g2371
S'B`\xe5>'
p3114
tp3115
Rp3116
aa(lp3117
g2
(g2371
S'\xafG\xe1>'
p3118
tp3119
Rp3120
aa(lp3121
g2
(g2371
S'\x19\x04\xd6>'
p3122
tp3123
Rp3124
aa(lp3125
g2
(g2371
S'l\xe7\xfb>'
p3126
tp3127
Rp3128
aa(lp3129
g2
(g2371
S'\x8cl\xe7>'
p3130
tp3131
Rp3132
aa(lp3133
g2
(g2371
S'\xfc\xa9\xf1>'
p3134
tp3135
Rp3136
aa(lp3137
g2
(g2371
S']\x8f\x02?'
p3138
tp3139
Rp3140
aa(lp3141
g2
(g2371
S'\xfc\xa9\xf1>'
p3142
tp3143
Rp3144
aa(lp3145
g2
(g2371
S'\xb6\xf3\xfd>'
p3146
tp3147
Rp3148
aa(lp3149
g2
(g2371
S'\xcc\xcc\x0c?'
p3150
tp3151
Rp3152
aa(lp3153
g2
(g2371
S'%\x06\x01?'
p3154
tp3155
Rp3156
aa(lp3157
g2
(g2371
S'\x89A\xe0>'
p3158
tp3159
Rp3160
aa(lp3161
g2
(g2371
S'\xd4M\xe2>'
p3162
tp3163
Rp3164
aa(lp3165
g2
(g2371
S'#\xdb\xf9>'
p3166
tp3167
Rp3168
aa(lp3169
g2
(g2371
S'n\x12\x03?'
p3170
tp3171
Rp3172
aa(lp3173
g2
(g2371
S'\xf6(\xdc>'
p3174
tp3175
Rp3176
aa(lp3177
g2
(g2371
S'\x12\x83\x00?'
p3178
tp3179
Rp3180
aa(lp3181
g2
(g2371
S'\xb8\x1e\x05?'
p3182
tp3183
Rp3184
aa(lp3185
g2
(g2371
S'\xdfO\r?'
p3186
tp3187
Rp3188
aa(lp3189
g2
(g2371
S'+\x87\x16?'
p3190
tp3191
Rp3192
aa(lp3193
g2
(g2371
S'o\x12\x03?'
p3194
tp3195
Rp3196
aa(lp3197
g2
(g2371
S'D\x8b\xec>'
p3198
tp3199
Rp3200
aa(lp3201
g2
(g2371
S'gf\xe6>'
p3202
tp3203
Rp3204
aa(lp3205
g2
(g2371
S'\\\x8f\x02?'
p3206
tp3207
Rp3208
aa(lp3209
g2
(g2371
S'\xd2M\xe2>'
p3210
tp3211
Rp3212
aa(lp3213
g2
(g2371
S'\x8al\xe7>'
p3214
tp3215
Rp3216
aa(lp3217
g2
(g2371
S'\x00\x00\x00?'
p3218
tp3219
Rp3220
aa(lp3221
g2
(g2371
S'\x85\xeb\x11?'
p3222
tp3223
Rp3224
aa(lp3225
g2
(g2371
S'o\x12\x03?'
p3226
tp3227
Rp3228
aa(lp3229
g2
(g2371
S'\x08\xac\x1c?'
p3230
tp3231
Rp3232
aa(lp3233
g2
(g2371
S'\\\x8f\x02?'
p3234
tp3235
Rp3236
aa(lp3237
g2
(g2371
S'A`\xe5>'
p3238
tp3239
Rp3240
aa(lp3241
g2
(g2371
S'7\x89\x01?'
p3242
tp3243
Rp3244
aa(lp3245
g2
(g2371
S'\xdc$\x06?'
p3246
tp3247
Rp3248
aa(lp3249
g2
(g2371
S'n\xe7\xfb>'
p3250
tp3251
Rp3252
aa(lp3253
g2
(g2371
S'\x1f\x85\xeb>'
p3254
tp3255
Rp3256
aa(lp3257
g2
(g2371
S'F\xb6\xf3>'
p3258
tp3259
Rp3260
aa(lp3261
g2
(g2371
S"'1\x08?"
p3262
tp3263
Rp3264
aa(lp3265
g2
(g2371
S'\x02+\x07?'
p3266
tp3267
Rp3268
aa(lp3269
g2
(g2371
S'\xe0z\x14?'
p3270
tp3271
Rp3272
aa(lp3273
g2
(g2371
S'\x02+\x07?'
p3274
tp3275
Rp3276
aa(lp3277
g2
(g2371
S'\x1dZ\xe4>'
p3278
tp3279
Rp3280
aa(lp3281
g2
(g2371
S'\xdc\xf9\xfe>'
p3282
tp3283
Rp3284
aa(lp3285
g2
(g2371
S'\xa6\x9b\x04?'
p3286
tp3287
Rp3288
aa(lp3289
g2
(g2371
S'J\x0c\x02?'
p3290
tp3291
Rp3292
aa(lp3293
g2
(g2371
S'\xd7\xa3\xf0>'
p3294
tp3295
Rp3296
aa(lp3297
g2
(g2371
S'q=\n?'
p3298
tp3299
Rp3300
aa(lp3301
g2
(g2371
S';\xdf\x0f?'
p3302
tp3303
Rp3304
aa(lp3305
g2
(g2371
S'^\xba\t?'
p3306
tp3307
Rp3308
aa(lp3309
g2
(g2371
S'/\xdd$?'
p3310
tp3311
Rp3312
aa(lp3313
g2
(g2371
S'\xcd\xcc\x0c?'
p3314
tp3315
Rp3316
aa(lp3317
g2
(g2371
S'\xfc\xa9\xf1>'
p3318
tp3319
Rp3320
aa(lp3321
g2
(g2371
S'\xb8\x1e\x05?'
p3322
tp3323
Rp3324
aa(lp3325
g2
(g2371
S'rh\x11?'
p3326
tp3327
Rp3328
aa(lp3329
g2
(g2371
S'm\xe7\xfb>'
p3330
tp3331
Rp3332
aa(lp3333
g2
(g2371
S'G\xe1\xfa>'
p3334
tp3335
Rp3336
aa(lp3337
g2
(g2371
S'\xe0O\r?'
p3338
tp3339
Rp3340
aa(lp3341
g2
(g2371
S'\x9a\x99\x19?'
p3342
tp3343
Rp3344
aa(lp3345
g2
(g2371
S'^\xba\t?'
p3346
tp3347
Rp3348
aa(lp3349
g2
(g2371
S'\x1cZ$?'
p3350
tp3351
Rp3352
aa(lp3353
g2
(g2371
S'\x05\x81\x15?'
p3354
tp3355
Rp3356
aa(lp3357
g2
(g2371
S'G\xe1\xfa>'
p3358
tp3359
Rp3360
aa(lp3361
g2
(g2371
S'>\n\x17?'
p3362
tp3363
Rp3364
aa(lp3365
g2
(g2371
S'rh\x11?'
p3366
tp3367
Rp3368
aa(lp3369
g2
(g2371
S'\xb5\xc8\xf6>'
p3370
tp3371
Rp3372
aa(lp3373
g2
(g2371
S'"\xdb\xf9>'
p3374
tp3375
Rp3376
aa(lp3377
g2
(g2371
S'\xf4\xfd\x14?'
p3378
tp3379
Rp3380
aa(lp3381
g2
(g2371
S'=\n\x17?'
p3382
tp3383
Rp3384
aa(lp3385
g2
(g2371
S'\xcd\xcc\x0c?'
p3386
tp3387
Rp3388
aa(lp3389
g2
(g2371
S'\xb0r(?'
p3390
tp3391
Rp3392
aa(lp3393
g2
(g2371
S'\xab\x1c\x1a?'
p3394
tp3395
Rp3396
aa(lp3397
g2
(g2371
S'\xdb\xf9\xfe>'
p3398
tp3399
Rp3400
aa(lp3401
g2
(g2371
S'-\xb2\x1d?'
p3402
tp3403
Rp3404
aa(lp3405
g2
(g2371
S'\xe1z\x14?'
p3406
tp3407
Rp3408
aa(lp3409
g2
(g2371
S'\x00\x00\x00?'
p3410
tp3411
Rp3412
aa(lp3413
g2
(g2371
S'\xb4\xc8\xf6>'
p3414
tp3415
Rp3416
aa(lp3417
g2
(g2371
S'\x9a\x99\x19?'
p3418
tp3419
Rp3420
aa(lp3421
g2
(g2371
S'\xf6(\x1c?'
p3422
tp3423
Rp3424
aa(lp3425
g2
(g2371
S'P\x8d\x17?'
p3426
tp3427
Rp3428
aa(lp3429
g2
(g2371
S'\xd5x)?'
p3430
tp3431
Rp3432
aa(lp3433
g2
(g2371
S'\xac\x1c\x1a?'
p3434
tp3435
Rp3436
aa(lp3437
g2
(g2371
S'\xcb\xa1\x05?'
p3438
tp3439
Rp3440
aa(lp3441
g2
(g2371
S'\x1b/\x1d?'
p3442
tp3443
Rp3444
aa(lp3445
g2
(g2371
S'\xf6(\x1c?'
p3446
tp3447
Rp3448
aa(lp3449
g2
(g2371
S'&1\x08?'
p3450
tp3451
Rp3452
aa(lp3453
g2
(g2371
S'\xfb\xa9\xf1>'
p3454
tp3455
Rp3456
aa(lp3457
g2
(g2371
S'=\n\x17?'
p3458
tp3459
Rp3460
aa(lp3461
g2
(g2371
S'\xf3\xfd\x14?'
p3462
tp3463
Rp3464
aa(lp3465
g2
(g2371
S'\xbaI\x0c?'
p3466
tp3467
Rp3468
aa(lp3469
g2
(g2371
S'\xfa~*?'
p3470
tp3471
Rp3472
aa(lp3473
g2
(g2371
S'\xcf\xf7\x13?'
p3474
tp3475
Rp3476
aa(lp3477
g2
(g2371
S'\xa6\x9b\x04?'
p3478
tp3479
Rp3480
aa(lp3481
g2
(g2371
S'\xf5(\x1c?'
p3482
tp3483
Rp3484
aa(lp3485
g2
(g2371
S'\xd0"\x1b?'
p3486
tp3487
Rp3488
aa(lp3489
g2
(g2371
S'9\xb4\x08?'
p3490
tp3491
Rp3492
aa(lp3493
g2
(g2371
S'\x00\x00\x00?'
p3494
tp3495
Rp3496
aa(lp3497
g2
(g2371
S'\x87\x16\x19?'
p3498
tp3499
Rp3500
aa(lp3501
g2
(g2371
S'\xd1"\x1b?'
p3502
tp3503
Rp3504
aa(lp3505
g2
(g2371
S'\\\x8f\x02?'
p3506
tp3507
Rp3508
aa(lp3509
g2
(g2371
S'\x1e\x85+?'
p3510
tp3511
Rp3512
aa(lp3513
g2
(g2371
S'\x87\x16\x19?'
p3514
tp3515
Rp3516
aa(lp3517
g2
(g2371
S'\xdd$\x06?'
p3518
tp3519
Rp3520
aa(lp3521
g2
(g2371
S'\xaeG!?'
p3522
tp3523
Rp3524
aa(lp3525
g2
(g2371
S'e;\x1f?'
p3526
tp3527
Rp3528
aa(lp3529
g2
(g2371
S'\x06\x81\x15?'
p3530
tp3531
Rp3532
aa(lp3533
g2
(g2371
S'#\xdb\xf9>'
p3534
tp3535
Rp3536
aa(lp3537
g2
(g2371
S'\x87\x16\x19?'
p3538
tp3539
Rp3540
aa(lp3541
g2
(g2371
S'\x99\x99\x19?'
p3542
tp3543
Rp3544
aa(lp3545
g2
(g2371
S'\xd0\xf7\x13?'
p3546
tp3547
Rp3548
aa(lp3549
g2
(g2371
S'2\x08,?'
p3550
tp3551
Rp3552
aa(lp3553
g2
(g2371
S'R\xb8\x1e?'
p3554
tp3555
Rp3556
aa(lp3557
g2
(g2371
S'\xdfO\r?'
p3558
tp3559
Rp3560
aa(lp3561
g2
(g2371
S'\x9c\xc4 ?'
p3562
tp3563
Rp3564
aa(lp3565
g2
(g2371
S'S\xb8\x1e?'
p3566
tp3567
Rp3568
aa(lp3569
g2
(g2371
S'\x16\xd9\x0e?'
p3570
tp3571
Rp3572
aa(lp3573
g2
(g2371
S'n\x12\x03?'
p3574
tp3575
Rp3576
aa(lp3577
g2
(g2371
S'v\xbe\x1f?'
p3578
tp3579
Rp3580
aa(lp3581
g2
(g2371
S'\x9c\xc4 ?'
p3582
tp3583
Rp3584
aa(lp3585
g2
(g2371
S'\x95C\x0b?'
p3586
tp3587
Rp3588
aa(lp3589
g2
(g2371
S'\xd5x)?'
p3590
tp3591
Rp3592
aa(lp3593
g2
(g2371
S'\xafr(?'
p3594
tp3595
Rp3596
aa(lp3597
g2
(g2371
S'sh\x11?'
p3598
tp3599
Rp3600
aa(lp3601
g2
(g2371
S'z\xe9&?'
p3602
tp3603
Rp3604
aa(lp3605
g2
(g2371
S'ff&?'
p3606
tp3607
Rp3608
aa(lp3609
g2
(g2371
S'\x85\xeb\x11?'
p3610
tp3611
Rp3612
aa(lp3613
g2
(g2371
S'F\xe1\xfa>'
p3614
tp3615
Rp3616
aa(lp3617
g2
(g2371
S'\xf6(\x1c?'
p3618
tp3619
Rp3620
aa(lp3621
g2
(g2371
S'x\xbe\x1f?'
p3622
tp3623
Rp3624
aa(lp3625
g2
(g2371
S'\xe2z\x14?'
p3626
tp3627
Rp3628
aa(lp3629
g2
(g2371
S'\xd7\xa30?'
p3630
tp3631
Rp3632
aa(lp3633
g2
(g2371
S'\x9c\xc4 ?'
p3634
tp3635
Rp3636
aa(lp3637
g2
(g2371
S'\xe1z\x14?'
p3638
tp3639
Rp3640
aa(lp3641
g2
(g2371
S'/\xdd$?'
p3642
tp3643
Rp3644
aa(lp3645
g2
(g2371
S'\xc0\xca!?'
p3646
tp3647
Rp3648
aa(lp3649
g2
(g2371
S'\x99\x99\x19?'
p3650
tp3651
Rp3652
aa(lp3653
g2
(g2371
S'#\xdb\xf9>'
p3654
tp3655
Rp3656
aa(lp3657
g2
(g2371
S'\xf6(\x1c?'
p3658
tp3659
Rp3660
aa(lp3661
g2
(g2371
S'\n\xd7#?'
p3662
tp3663
Rp3664
aa(lp3665
g2
(g2371
S'\x82\xc0\n?'
p3666
tp3667
Rp3668
aa(lp3669
g2
(g2371
S'\xd8\xa30?'
p3670
tp3671
Rp3672
aa(lp3673
g2
(g2371
S'\xc1\xca!?'
p3674
tp3675
Rp3676
aa(lp3677
g2
(g2371
S'\x01+\x07?'
p3678
tp3679
Rp3680
aa(lp3681
g2
(g2371
S'P\x8d\x17?'
p3682
tp3683
Rp3684
aa(lp3685
g2
(g2371
S'U\xe3%?'
p3686
tp3687
Rp3688
aa(lp3689
g2
(g2371
S'\x9b\xc4 ?'
p3690
tp3691
Rp3692
aa(lp3693
g2
(g2371
S'\x14\xae\x07?'
p3694
tp3695
Rp3696
aa(lp3697
g2
(g2371
S'\xc0\xca!?'
p3698
tp3699
Rp3700
aa(lp3701
g2
(g2371
S'\xe9&1?'
p3702
tp3703
Rp3704
aa(lp3705
g2
(g2371
S'\xcf\xf7\x13?'
p3706
tp3707
Rp3708
aa(lp3709
g2
(g2371
S'\xb3\x9d/?'
p3710
tp3711
Rp3712
aa(lp3713
g2
(g2371
S'\xd7\xa30?'
p3714
tp3715
Rp3716
aa(lp3717
g2
(g2371
S'.\xb2\x1d?'
p3718
tp3719
Rp3720
aa(lp3721
g2
(g2371
S'T\xe3%?'
p3722
tp3723
Rp3724
aa(lp3725
g2
(g2371
S'y\xe9&?'
p3726
tp3727
Rp3728
aa(lp3729
g2
(g2371
S'\x9c\xc4 ?'
p3730
tp3731
Rp3732
aa(lp3733
g2
(g2371
S'p=\n?'
p3734
tp3735
Rp3736
aa(lp3737
g2
(g2371
S'd;\x1f?'
p3738
tp3739
Rp3740
aa(lp3741
g2
(g2371
S'\xd8\xa30?'
p3742
tp3743
Rp3744
aa(lp3745
g2
(g2371
S'\x85\xeb\x11?'
p3746
tp3747
Rp3748
aa(lp3749
g2
(g2371
S'I\xe1:?'
p3750
tp3751
Rp3752
aa(lp3753
g2
(g2371
S'y\xe9&?'
p3754
tp3755
Rp3756
aa(lp3757
g2
(g2371
S' \x85+?'
p3758
tp3759
Rp3760
aa(lp3761
g2
(g2371
S'{\x14.?'
p3762
tp3763
Rp3764
aa(lp3765
g2
(g2371
S'\xafG!?'
p3766
tp3767
Rp3768
aa(lp3769
g2
(g2371
S'\xf6(\x1c?'
p3770
tp3771
Rp3772
aa(lp3773
g2
(g2371
S'\xa7\xc6\x0b?'
p3774
tp3775
Rp3776
aa(lp3777
g2
(g2371
S'\xc0\xca!?'
p3778
tp3779
Rp3780
aa(lp3781
g2
(g2371
S'F\xb63?'
p3782
tp3783
Rp3784
aa(lp3785
g2
(g2371
S'\x1a/\x1d?'
p3786
tp3787
Rp3788
aa(lp3789
g2
(g2371
S'\xa2E6?'
p3790
tp3791
Rp3792
aa(lp3793
g2
(g2371
S'gf&?'
p3794
tp3795
Rp3796
aa(lp3797
g2
(g2371
S'R\xb8\x1e?'
p3798
tp3799
Rp3800
aa(lp3801
g2
(g2371
S'\xc6 0?'
p3802
tp3803
Rp3804
aa(lp3805
g2
(g2371
S'\r\x02+?'
p3806
tp3807
Rp3808
aa(lp3809
g2
(g2371
S'd;\x1f?'
p3810
tp3811
Rp3812
aa(lp3813
g2
(g2371
S'\x17\xd9\x0e?'
p3814
tp3815
Rp3816
aa(lp3817
g2
(g2371
S'\xb1r(?'
p3818
tp3819
Rp3820
aa(lp3821
g2
(g2371
S'l\xe7;?'
p3822
tp3823
Rp3824
aa(lp3825
g2
(g2371
S'\x08\xac\x1c?'
p3826
tp3827
Rp3828
aa(lp3829
g2
(g2371
S'\xfd\xd48?'
p3830
tp3831
Rp3832
aa(lp3833
g2
(g2371
S'\xd7\xa30?'
p3834
tp3835
Rp3836
aa(lp3837
g2
(g2371
S'\x0c\x02+?'
p3838
tp3839
Rp3840
aa(lp3841
g2
(g2371
S'\xb2\x9d/?'
p3842
tp3843
Rp3844
aa(lp3845
g2
(g2371
S'333?'
p3846
tp3847
Rp3848
aa(lp3849
g2
(g2371
S'\t\xd7#?'
p3850
tp3851
Rp3852
aa(lp3853
g2
(g2371
S'\xcd\xcc\x0c?'
p3854
tp3855
Rp3856
aa(lp3857
g2
(g2371
S'-\xb2\x1d?'
p3858
tp3859
Rp3860
aa(lp3861
g2
(g2371
S'\xd6\xa30?'
p3862
tp3863
Rp3864
aa(lp3865
g2
(g2371
S'\xbe\x9f\x1a?'
p3866
tp3867
Rp3868
aa(lp3869
g2
(g2371
S'\xebQ8?'
p3870
tp3871
Rp3872
aa(lp3873
g2
(g2371
S'\x8d\x97.?'
p3874
tp3875
Rp3876
aa(lp3877
g2
(g2371
S'\xf6(\x1c?'
p3878
tp3879
Rp3880
aa(lp3881
g2
(g2371
S'!\xb02?'
p3882
tp3883
Rp3884
aa(lp3885
g2
(g2371
S'{\x14.?'
p3886
tp3887
Rp3888
aa(lp3889
g2
(g2371
S'\x9c\xc4 ?'
p3890
tp3891
Rp3892
aa(lp3893
g2
(g2371
S'\xf4\xfd\x14?'
p3894
tp3895
Rp3896
aa(lp3897
g2
(g2371
S'\xaeG!?'
p3898
tp3899
Rp3900
aa(lp3901
g2
(g2371
S'\x0e-2?'
p3902
tp3903
Rp3904
aa(lp3905
g2
(g2371
S'\x99\x99\x19?'
p3906
tp3907
Rp3908
aa(lp3909
g2
(g2371
S'\xd9\xce7?'
p3910
tp3911
Rp3912
aa(lp3913
g2
(g2371
S'\xf7S#?'
p3914
tp3915
Rp3916
aa(lp3917
g2
(g2371
S'Q\xb8\x1e?'
p3918
tp3919
Rp3920
aa(lp3921
g2
(g2371
S'j\xbc4?'
p3922
tp3923
Rp3924
aa(lp3925
g2
(g2371
S'\xd5x)?'
p3926
tp3927
Rp3928
aa(lp3929
g2
(g2371
S'\x89A ?'
p3930
tp3931
Rp3932
aa(lp3933
g2
(g2371
S'd;\x1f?'
p3934
tp3935
Rp3936
aa(lp3937
g2
(g2371
S'\xf7S#?'
p3938
tp3939
Rp3940
aa(lp3941
g2
(g2371
S'k\xbc4?'
p3942
tp3943
Rp3944
aa(lp3945
g2
(g2371
S'?5\x1e?'
p3946
tp3947
Rp3948
aa(lp3949
g2
(g2371
S'\\\x8fB?'
p3950
tp3951
Rp3952
aa(lp3953
g2
(g2371
S'1\x08,?'
p3954
tp3955
Rp3956
aa(lp3957
g2
(g2371
S'\n\xd7#?'
p3958
tp3959
Rp3960
aa(lp3961
g2
(g2371
S'333?'
p3962
tp3963
Rp3964
aa(lp3965
g2
(g2371
S'\xc5 0?'
p3966
tp3967
Rp3968
aa(lp3969
g2
(g2371
S'h\x91-?'
p3970
tp3971
Rp3972
aa(lp3973
g2
(g2371
S'+\x87\x16?'
p3974
tp3975
Rp3976
aa(lp3977
g2
(g2371
S'\n\xd7#?'
p3978
tp3979
Rp3980
aa(lp3981
g2
(g2371
S'233?'
p3982
tp3983
Rp3984
aa(lp3985
g2
(g2371
S'\n\xd7#?'
p3986
tp3987
Rp3988
aa(lp3989
g2
(g2371
S'n\x12C?'
p3990
tp3991
Rp3992
aa(lp3993
g2
(g2371
S'\x8e\x97.?'
p3994
tp3995
Rp3996
aa(lp3997
g2
(g2371
S'\xadG!?'
p3998
tp3999
Rp4000
aa(lp4001
g2
(g2371
S'\xfc\xa91?'
p4002
tp4003
Rp4004
aa(lp4005
g2
(g2371
S"\x9e\xef'?"
p4006
tp4007
Rp4008
aa(lp4009
g2
(g2371
S'\x8e\x97.?'
p4010
tp4011
Rp4012
aa(lp4013
g2
(g2371
S'\xe6\xd0"?'
p4014
tp4015
Rp4016
aa(lp4017
g2
(g2371
S'\xe6\xd0"?'
p4018
tp4019
Rp4020
aa(lp4021
g2
(g2371
S'\xe9&1?'
p4022
tp4023
Rp4024
aa(lp4025
g2
(g2371
S'T\xe3%?'
p4026
tp4027
Rp4028
aa(lp4029
g2
(g2371
S'\xb8\x1eE?'
p4030
tp4031
Rp4032
aa(lp4033
g2
(g2371
S'\xe9&1?'
p4034
tp4035
Rp4036
aa(lp4037
g2
(g2371
S'y\xe9&?'
p4038
tp4039
Rp4040
aa(lp4041
g2
(g2371
S'W94?'
p4042
tp4043
Rp4044
aa(lp4045
g2
(g2371
S'\xea&1?'
p4046
tp4047
Rp4048
aa(lp4049
g2
(g2371
S'\xe9&1?'
p4050
tp4051
Rp4052
aa(lp4053
g2
(g2371
S'\x1cZ$?'
p4054
tp4055
Rp4056
aa(lp4057
g2
(g2371
S'T\xe3%?'
p4058
tp4059
Rp4060
aa(lp4061
g2
(g2371
S'\xe9&1?'
p4062
tp4063
Rp4064
aa(lp4065
g2
(g2371
S'\xd7\xa30?'
p4066
tp4067
Rp4068
aa(lp4069
g2
(g2371
S']\x8fB?'
p4070
tp4071
Rp4072
aa(lp4073
g2
(g2371
S'\xa0\x1a/?'
p4074
tp4075
Rp4076
aa(lp4077
g2
(g2371
S'\x0b\xd7#?'
p4078
tp4079
Rp4080
aa(lp4081
g2
(g2371
S'\xecQ8?'
p4082
tp4083
Rp4084
aa(lp4085
g2
(g2371
S'\xb2\x9d/?'
p4086
tp4087
Rp4088
aa(lp4089
g2
(g2371
S'333?'
p4090
tp4091
Rp4092
aa(lp4093
g2
(g2371
S'\xe5\xd0"?'
p4094
tp4095
Rp4096
aa(lp4097
g2
(g2371
S'\x1dZ$?'
p4098
tp4099
Rp4100
aa(lp4101
g2
(g2371
S'\xc6K7?'
p4102
tp4103
Rp4104
aa(lp4105
g2
(g2371
S'R\xb8\x1e?'
p4106
tp4107
Rp4108
aa(lp4109
g2
(g2371
S'\xb7\xf3=?'
p4110
tp4111
Rp4112
aa(lp4113
g2
(g2371
S'\xa0\x1a/?'
p4114
tp4115
Rp4116
aa(lp4117
g2
(g2371
S'~?5?'
p4118
tp4119
Rp4120
aa(lp4121
g2
(g2371
S'~?5?'
p4122
tp4123
Rp4124
aa(lp4125
g2
(g2371
S'\x7fj<?'
p4126
tp4127
Rp4128
aa(lp4129
g2
(g2371
S'gf&?'
p4130
tp4131
Rp4132
aa(lp4133
g2
(g2371
S'\x9b\xc4 ?'
p4134
tp4135
Rp4136
aa(lp4137
g2
(g2371
S'\x0c\x02+?'
p4138
tp4139
Rp4140
aa(lp4141
g2
(g2371
S'\x8f\xc25?'
p4142
tp4143
Rp4144
aa(lp4145
g2
(g2371
S'e;\x1f?'
p4146
tp4147
Rp4148
aa(lp4149
g2
(g2371
S'\x00\x00@?'
p4150
tp4151
Rp4152
aa(lp4153
g2
(g2371
S'\xc6 0?'
p4154
tp4155
Rp4156
aa(lp4157
g2
(g2371
S'\xd9\xce7?'
p4158
tp4159
Rp4160
aa(lp4161
g2
(g2371
S'j\xbc4?'
p4162
tp4163
Rp4164
aa(lp4165
g2
(g2371
S'333?'
p4166
tp4167
Rp4168
aa(lp4169
g2
(g2371
S'\xd7\xa30?'
p4170
tp4171
Rp4172
aa(lp4173
g2
(g2371
S'\x9b\xc4 ?'
p4174
tp4175
Rp4176
aa(lp4177
g2
(g2371
S'\xb1r(?'
p4178
tp4179
Rp4180
aa(lp4181
g2
(g2371
S'\xa3p=?'
p4182
tp4183
Rp4184
aa(lp4185
g2
(g2371
S'\xb1r(?'
p4186
tp4187
Rp4188
aa(lp4189
g2
(g2371
S'\xb6\xf3=?'
p4190
tp4191
Rp4192
aa(lp4193
g2
(g2371
S'\xfe\xd48?'
p4194
tp4195
Rp4196
aa(lp4197
g2
(g2371
S'Zd;?'
p4198
tp4199
Rp4200
aa(lp4201
g2
(g2371
S'F\xb63?'
p4202
tp4203
Rp4204
aa(lp4205
g2
(g2371
S'\x00\x00@?'
p4206
tp4207
Rp4208
aa(lp4209
g2
(g2371
S'\r\x02+?'
p4210
tp4211
Rp4212
aa(lp4213
g2
(g2371
S'\n\xd7#?'
p4214
tp4215
Rp4216
aa(lp4217
g2
(g2371
S'|\x14.?'
p4218
tp4219
Rp4220
aa(lp4221
g2
(g2371
S'\xa5p=?'
p4222
tp4223
Rp4224
aa(lp4225
g2
(g2371
S"\x8al'?"
p4226
tp4227
Rp4228
aa(lp4229
g2
(g2371
S'J\x0cB?'
p4230
tp4231
Rp4232
aa(lp4233
g2
(g2371
S'233?'
p4234
tp4235
Rp4236
aa(lp4237
g2
(g2371
S'6^:?'
p4238
tp4239
Rp4240
aa(lp4241
g2
(g2371
S'\xc9v>?'
p4242
tp4243
Rp4244
aa(lp4245
g2
(g2371
S'\xa6\x9bD?'
p4246
tp4247
Rp4248
aa(lp4249
g2
(g2371
S'|\x14.?'
p4250
tp4251
Rp4252
aa(lp4253
g2
(g2371
S'\xc0\xca!?'
p4254
tp4255
Rp4256
aa(lp4257
g2
(g2371
S'333?'
p4258
tp4259
Rp4260
aa(lp4261
g2
(g2371
S'\xa4p=?'
p4262
tp4263
Rp4264
aa(lp4265
g2
(g2371
S'1\x08,?'
p4266
tp4267
Rp4268
aa(lp4269
g2
(g2371
S'I\x0cB?'
p4270
tp4271
Rp4272
aa(lp4273
g2
(g2371
S'\xebQ8?'
p4274
tp4275
Rp4276
aa(lp4277
g2
(g2371
S'F\xb63?'
p4278
tp4279
Rp4280
aa(lp4281
g2
(g2371
S'\xdb\xf9>?'
p4282
tp4283
Rp4284
aa(lp4285
g2
(g2371
S'\xb9\x1eE?'
p4286
tp4287
Rp4288
aa(lp4289
g2
(g2371
S'\xd6x)?'
p4290
tp4291
Rp4292
aa(lp4293
g2
(g2371
S'\xadG!?'
p4294
tp4295
Rp4296
aa(lp4297
g2
(g2371
S'\xd6\xa30?'
p4298
tp4299
Rp4300
aa(lp4301
g2
(g2371
S'\xa3p=?'
p4302
tp4303
Rp4304
aa(lp4305
g2
(g2371
S'ff&?'
p4306
tp4307
Rp4308
aa(lp4309
g2
(g2371
S'\xb8\x1eE?'
p4310
tp4311
Rp4312
aa(lp4313
g2
(g2371
S'}?5?'
p4314
tp4315
Rp4316
aa(lp4317
g2
(g2371
S'\xecQ8?'
p4318
tp4319
Rp4320
aa(lp4321
g2
(g2371
S'\xee|??'
p4322
tp4323
Rp4324
aa(lp4325
g2
(g2371
S'\x13\x83@?'
p4326
tp4327
Rp4328
aa(lp4329
g2
(g2371
S'433?'
p4330
tp4331
Rp4332
aa(lp4333
g2
(g2371
S'\xd5x)?'
p4334
tp4335
Rp4336
aa(lp4337
g2
(g2371
S'433?'
p4338
tp4339
Rp4340
aa(lp4341
g2
(g2371
S'\xb7\xf3=?'
p4342
tp4343
Rp4344
aa(lp4345
g2
(g2371
S'V\x0e-?'
p4346
tp4347
Rp4348
aa(lp4349
g2
(g2371
S'^\xbaI?'
p4350
tp4351
Rp4352
aa(lp4353
g2
(g2371
S'\xfe\xd48?'
p4354
tp4355
Rp4356
aa(lp4357
g2
(g2371
S'\x8f\xc25?'
p4358
tp4359
Rp4360
aa(lp4361
g2
(g2371
S'o\x12C?'
p4362
tp4363
Rp4364
aa(lp4365
g2
(g2371
S'\xb6\xf3=?'
p4366
tp4367
Rp4368
aa(lp4369
g2
(g2371
S'G\xe1:?'
p4370
tp4371
Rp4372
aa(lp4373
g2
(g2371
S'\xf9S#?'
p4374
tp4375
Rp4376
aa(lp4377
g2
(g2371
S'433?'
p4378
tp4379
Rp4380
aa(lp4381
g2
(g2371
S'%\x06A?'
p4382
tp4383
Rp4384
aa(lp4385
g2
(g2371
S'\x1d\x85+?'
p4386
tp4387
Rp4388
aa(lp4389
g2
(g2371
S'\xcb\xa1E?'
p4390
tp4391
Rp4392
aa(lp4393
g2
(g2371
S'\x82\x95C?'
p4394
tp4395
Rp4396
aa(lp4397
g2
(g2371
S'\xc7K7?'
p4398
tp4399
Rp4400
aa(lp4401
g2
(g2371
S'%\x06A?'
p4402
tp4403
Rp4404
aa(lp4405
g2
(g2371
S'\x92\xed<?'
p4406
tp4407
Rp4408
aa(lp4409
g2
(g2371
S'E\xb63?'
p4410
tp4411
Rp4412
aa(lp4413
g2
(g2371
S'2\x08,?'
p4414
tp4415
Rp4416
aa(lp4417
g2
(g2371
S' \xb02?'
p4418
tp4419
Rp4420
aa(lp4421
g2
(g2371
S'G\xe1:?'
p4422
tp4423
Rp4424
aa(lp4425
g2
(g2371
S'\x8d\x97.?'
p4426
tp4427
Rp4428
aa(lp4429
g2
(g2371
S'r=J?'
p4430
tp4431
Rp4432
aa(lp4433
g2
(g2371
S'\x7fj<?'
p4434
tp4435
Rp4436
aa(lp4437
g2
(g2371
S'\x11X9?'
p4438
tp4439
Rp4440
aa(lp4441
g2
(g2371
S'p=J?'
p4442
tp4443
Rp4444
aa(lp4445
g2
(g2371
S'\x00\x00@?'
p4446
tp4447
Rp4448
aa(lp4449
g2
(g2371
S'~?5?'
p4450
tp4451
Rp4452
aa(lp4453
g2
(g2371
S'\xb1r(?'
p4454
tp4455
Rp4456
aa(lp4457
g2
(g2371
S'\xa2E6?'
p4458
tp4459
Rp4460
aa(lp4461
g2
(g2371
S'\xa4p=?'
p4462
tp4463
Rp4464
aa(lp4465
g2
(g2371
S'\xc4 0?'
p4466
tp4467
Rp4468
aa(lp4469
g2
(g2371
S'\x14\xaeG?'
p4470
tp4471
Rp4472
aa(lp4473
g2
(g2371
S'\xff\xd48?'
p4474
tp4475
Rp4476
aa(lp4477
g2
(g2371
S'433?'
p4478
tp4479
Rp4480
aa(lp4481
g2
(g2371
S'\xb7\xf3=?'
p4482
tp4483
Rp4484
aa(lp4485
g2
(g2371
S'\x83\xc0J?'
p4486
tp4487
Rp4488
aa(lp4489
g2
(g2371
S'F\xb63?'
p4490
tp4491
Rp4492
aa(lp4493
g2
(g2371
S'F\xb63?'
p4494
tp4495
Rp4496
aa(lp4497
g2
(g2371
S'\xd9\xce7?'
p4498
tp4499
Rp4500
aa(lp4501
g2
(g2371
S'\x00\x00@?'
p4502
tp4503
Rp4504
aa(lp4505
g2
(g2371
S' \xb02?'
p4506
tp4507
Rp4508
aa(lp4509
g2
(g2371
S'q=J?'
p4510
tp4511
Rp4512
aa(lp4513
g2
(g2371
S'\xfe\xd48?'
p4514
tp4515
Rp4516
aa(lp4517
g2
(g2371
S'\xfe\xd48?'
p4518
tp4519
Rp4520
aa(lp4521
g2
(g2371
S'\xb8\x1eE?'
p4522
tp4523
Rp4524
aa(lp4525
g2
(g2371
S'J\x0cB?'
p4526
tp4527
Rp4528
aa(lp4529
g2
(g2371
S'~?5?'
p4530
tp4531
Rp4532
aa(lp4533
g2
(g2371
S'\xd8\xa30?'
p4534
tp4535
Rp4536
aa(lp4537
g2
(g2371
S'\xecQ8?'
p4538
tp4539
Rp4540
aa(lp4541
g2
(g2371
S'[d;?'
p4542
tp4543
Rp4544
aa(lp4545
g2
(g2371
S'333?'
p4546
tp4547
Rp4548
aa(lp4549
g2
(g2371
S'\x83\xc0J?'
p4550
tp4551
Rp4552
aa(lp4553
g2
(g2371
S'\xb7\xf3=?'
p4554
tp4555
Rp4556
aa(lp4557
g2
(g2371
S'\xee|??'
p4558
tp4559
Rp4560
aa(lp4561
g2
(g2371
S'\xb8\x1eE?'
p4562
tp4563
Rp4564
aa(lp4565
g2
(g2371
S'^\xbaI?'
p4566
tp4567
Rp4568
aa(lp4569
g2
(g2371
S' \xb02?'
p4570
tp4571
Rp4572
aa(lp4573
g2
(g2371
S'\x0c\x02+?'
p4574
tp4575
Rp4576
aa(lp4577
g2
(g2371
S'\xb6\xf3=?'
p4578
tp4579
Rp4580
aa(lp4581
g2
(g2371
S'\xebQ8?'
p4582
tp4583
Rp4584
aa(lp4585
g2
(g2371
S'\xecQ8?'
p4586
tp4587
Rp4588
aa(lp4589
g2
(g2371
S'\x14\xaeG?'
p4590
tp4591
Rp4592
aa(lp4593
g2
(g2371
S'k\xbc4?'
p4594
tp4595
Rp4596
aa(lp4597
g2
(g2371
S'\xa1E6?'
p4598
tp4599
Rp4600
aa(lp4601
g2
(g2371
S'\xb6\xf3=?'
p4602
tp4603
Rp4604
aa(lp4605
g2
(g2371
S'\xbaIL?'
p4606
tp4607
Rp4608
aa(lp4609
g2
(g2371
S'\x8c\x97.?'
p4610
tp4611
Rp4612
aa(lp4613
g2
(g2371
S'333?'
p4614
tp4615
Rp4616
aa(lp4617
g2
(g2371
S'\xebQ8?'
p4618
tp4619
Rp4620
aa(lp4621
g2
(g2371
S'(1H?'
p4622
tp4623
Rp4624
aa(lp4625
g2
(g2371
S'333?'
p4626
tp4627
Rp4628
aa(lp4629
g2
(g2371
S'*\x87V?'
p4630
tp4631
Rp4632
aa(lp4633
g2
(g2371
S'\x92\xed<?'
p4634
tp4635
Rp4636
aa(lp4637
g2
(g2371
S'\xa2p=?'
p4638
tp4639
Rp4640
aa(lp4641
g2
(g2371
S'q=J?'
p4642
tp4643
Rp4644
aa(lp4645
g2
(g2371
S'\x12\x83@?'
p4646
tp4647
Rp4648
aa(lp4649
g2
(g2371
S'G\xe1:?'
p4650
tp4651
Rp4652
aa(lp4653
g2
(g2371
S'433?'
p4654
tp4655
Rp4656
aa(lp4657
g2
(g2371
S'\xa6\x9bD?'
p4658
tp4659
Rp4660
aa(lp4661
g2
(g2371
S'\xb7\xf3=?'
p4662
tp4663
Rp4664
aa(lp4665
g2
(g2371
S'\xd7\xa30?'
p4666
tp4667
Rp4668
aa(lp4669
g2
(g2371
S'^\xbaI?'
p4670
tp4671
Rp4672
aa(lp4673
g2
(g2371
S'\x90\xc25?'
p4674
tp4675
Rp4676
aa(lp4677
g2
(g2371
S'6^:?'
p4678
tp4679
Rp4680
aa(lp4681
g2
(g2371
S'\x15\xaeG?'
p4682
tp4683
Rp4684
aa(lp4685
g2
(g2371
S'\xcd\xccL?'
p4686
tp4687
Rp4688
aa(lp4689
g2
(g2371
S'F\xb63?'
p4690
tp4691
Rp4692
aa(lp4693
g2
(g2371
S'V\x0e-?'
p4694
tp4695
Rp4696
aa(lp4697
g2
(g2371
S'6^:?'
p4698
tp4699
Rp4700
aa(lp4701
g2
(g2371
S'l\xe7;?'
p4702
tp4703
Rp4704
aa(lp4705
g2
(g2371
S'\xd7\xa30?'
p4706
tp4707
Rp4708
aa(lp4709
g2
(g2371
S'\x15\xaeG?'
p4710
tp4711
Rp4712
aa(lp4713
g2
(g2371
S'\xd8\xce7?'
p4714
tp4715
Rp4716
aa(lp4717
g2
(g2371
S'\xb6\xf3=?'
p4718
tp4719
Rp4720
aa(lp4721
g2
(g2371
S'p=J?'
p4722
tp4723
Rp4724
aa(lp4725
g2
(g2371
S'^\xbaI?'
p4726
tp4727
Rp4728
aa(lp4729
g2
(g2371
S'\x11X9?'
p4730
tp4731
Rp4732
aa(lp4733
g2
(g2371
S'\xa1E6?'
p4734
tp4735
Rp4736
aa(lp4737
g2
(g2371
S'\xfe\xd48?'
p4738
tp4739
Rp4740
aa(lp4741
g2
(g2371
S'\xb8\x1eE?'
p4742
tp4743
Rp4744
aa(lp4745
g2
(g2371
S'\x8e\xc25?'
p4746
tp4747
Rp4748
aa(lp4749
g2
(g2371
S'\x14\xaeG?'
p4750
tp4751
Rp4752
aa(lp4753
g2
(g2371
S'\xd7\xa30?'
p4754
tp4755
Rp4756
aa(lp4757
g2
(g2371
S'\xff\xff??'
p4758
tp4759
Rp4760
aa(lp4761
g2
(g2371
S'^\xbaI?'
p4762
tp4763
Rp4764
aa(lp4765
g2
(g2371
S'\xb8\x1eE?'
p4766
tp4767
Rp4768
aa(lp4769
g2
(g2371
S'G\xe1:?'
p4770
tp4771
Rp4772
aa(lp4773
g2
(g2371
S' \xb02?'
p4774
tp4775
Rp4776
aa(lp4777
g2
(g2371
S'&1H?'
p4778
tp4779
Rp4780
aa(lp4781
g2
(g2371
S'\xed|??'
p4782
tp4783
Rp4784
aa(lp4785
g2
(g2371
S'333?'
p4786
tp4787
Rp4788
aa(lp4789
g2
(g2371
S'>\nW?'
p4790
tp4791
Rp4792
aa(lp4793
g2
(g2371
S'\xb6\xf3=?'
p4794
tp4795
Rp4796
aa(lp4797
g2
(g2371
S'5^:?'
p4798
tp4799
Rp4800
aa(lp4801
g2
(g2371
S'_\xbaI?'
p4802
tp4803
Rp4804
aa(lp4805
g2
(g2371
S'\xce\xf7S?'
p4806
tp4807
Rp4808
aa(lp4809
g2
(g2371
S'\x90\xc25?'
p4810
tp4811
Rp4812
aa(lp4813
g2
(g2371
S'\xa2E6?'
p4814
tp4815
Rp4816
aa(lp4817
g2
(g2371
S'\x00\x00@?'
p4818
tp4819
Rp4820
aa(lp4821
g2
(g2371
S'\xa6\x9bD?'
p4822
tp4823
Rp4824
aa(lp4825
g2
(g2371
S'}?5?'
p4826
tp4827
Rp4828
aa(lp4829
g2
(g2371
S'thQ?'
p4830
tp4831
Rp4832
aa(lp4833
g2
(g2371
S'\xecQ8?'
p4834
tp4835
Rp4836
aa(lp4837
g2
(g2371
S'5^:?'
p4838
tp4839
Rp4840
aa(lp4841
g2
(g2371
S':\xdfO?'
p4842
tp4843
Rp4844
aa(lp4845
g2
(g2371
S'(\\O?'
p4846
tp4847
Rp4848
aa(lp4849
g2
(g2371
S'\xebQ8?'
p4850
tp4851
Rp4852
aa(lp4853
g2
(g2371
S'\xebQ8?'
p4854
tp4855
Rp4856
aa(lp4857
g2
(g2371
S'6^:?'
p4858
tp4859
Rp4860
aa(lp4861
g2
(g2371
S'\xa7\x9bD?'
p4862
tp4863
Rp4864
aa(lp4865
g2
(g2371
S'\x8f\xc25?'
p4866
tp4867
Rp4868
aa(lp4869
g2
(g2371
S'(\\O?'
p4870
tp4871
Rp4872
aa(lp4873
g2
(g2371
S'[d;?'
p4874
tp4875
Rp4876
aa(lp4877
g2
(g2371
S'G\xe1:?'
p4878
tp4879
Rp4880
aa(lp4881
g2
(g2371
S'\xcc\xccL?'
p4882
tp4883
Rp4884
aa(lp4885
g2
(g2371
S'q=J?'
p4886
tp4887
Rp4888
aa(lp4889
g2
(g2371
S'G\xe1:?'
p4890
tp4891
Rp4892
aa(lp4893
g2
(g2371
S'\x90\xc25?'
p4894
tp4895
Rp4896
aa(lp4897
g2
(g2371
S'\xa4p=?'
p4898
tp4899
Rp4900
aa(lp4901
g2
(g2371
S'\xff\xff??'
p4902
tp4903
Rp4904
aa(lp4905
g2
(g2371
S'\xebQ8?'
p4906
tp4907
Rp4908
aa(lp4909
g2
(g2371
S'>\nW?'
p4910
tp4911
Rp4912
aa(lp4913
g2
(g2371
S'|?5?'
p4914
tp4915
Rp4916
aa(lp4917
g2
(g2371
S'\x00\x00@?'
p4918
tp4919
Rp4920
aa(lp4921
g2
(g2371
S"'1H?"
p4922
tp4923
Rp4924
aa(lp4925
g2
(g2371
S';\xdfO?'
p4926
tp4927
Rp4928
aa(lp4929
g2
(g2371
S'5^:?'
p4930
tp4931
Rp4932
aa(lp4933
g2
(g2371
S'\x0f-2?'
p4934
tp4935
Rp4936
aa(lp4937
g2
(g2371
S'o\x12C?'
p4938
tp4939
Rp4940
aa(lp4941
g2
(g2371
S'\xdc$F?'
p4942
tp4943
Rp4944
aa(lp4945
g2
(g2371
S'\xecQ8?'
p4946
tp4947
Rp4948
aa(lp4949
g2
(g2371
S'\xe1zT?'
p4950
tp4951
Rp4952
aa(lp4953
g2
(g2371
S'\xfe\xd48?'
p4954
tp4955
Rp4956
aa(lp4957
g2
(g2371
S'\xa6\x9bD?'
p4958
tp4959
Rp4960
aa(lp4961
g2
(g2371
S'p=J?'
p4962
tp4963
Rp4964
aa(lp4965
g2
(g2371
S'*\\O?'
p4966
tp4967
Rp4968
aa(lp4969
g2
(g2371
S'G\xe1:?'
p4970
tp4971
Rp4972
aa(lp4973
g2
(g2371
S'\xfe\xd48?'
p4974
tp4975
Rp4976
aa(lp4977
g2
(g2371
S'\xa3p=?'
p4978
tp4979
Rp4980
aa(lp4981
g2
(g2371
S'\x14\xaeG?'
p4982
tp4983
Rp4984
aa(lp4985
g2
(g2371
S'\xecQ8?'
p4986
tp4987
Rp4988
aa(lp4989
g2
(g2371
S'\xe2zT?'
p4990
tp4991
Rp4992
aa(lp4993
g2
(g2371
S'\x90\xc25?'
p4994
tp4995
Rp4996
aa(lp4997
g2
(g2371
S'\xb5\xf3=?'
p4998
tp4999
Rp5000
aa(lp5001
g2
(g2371
S'(1H?'
p5002
tp5003
Rp5004
aa(lp5005
g2
(g2371
S'\xbaIL?'
p5006
tp5007
Rp5008
aa(lp5009
g2
(g2371
S'\xb6\xf3=?'
p5010
tp5011
Rp5012
aa(lp5013
g2
(g2371
S'Zd;?'
p5014
tp5015
Rp5016
aa(lp5017
g2
(g2371
S'\xa4p=?'
p5018
tp5019
Rp5020
aa(lp5021
g2
(g2371
S'\xcb\xa1E?'
p5022
tp5023
Rp5024
aa(lp5025
g2
(g2371
S'\x13\x83@?'
p5026
tp5027
Rp5028
aa(lp5029
g2
(g2371
S'shQ?'
p5030
tp5031
Rp5032
aa(lp5033
g2
(g2371
S'G\xe1:?'
p5034
tp5035
Rp5036
aa(lp5037
g2
(g2371
S'G\xe1:?'
p5038
tp5039
Rp5040
aa(lp5041
g2
(g2371
S'^\xbaI?'
p5042
tp5043
Rp5044
aa(lp5045
g2
(g2371
S')\\O?'
p5046
tp5047
Rp5048
aa(lp5049
g2
(g2371
S'5^:?'
p5050
tp5051
Rp5052
aa(lp5053
g2
(g2371
S'H\xe1:?'
p5054
tp5055
Rp5056
aa(lp5057
g2
(g2371
S'\xa5p=?'
p5058
tp5059
Rp5060
aa(lp5061
g2
(g2371
S'\xcc\xa1E?'
p5062
tp5063
Rp5064
aa(lp5065
g2
(g2371
S'Zd;?'
p5066
tp5067
Rp5068
aa(lp5069
g2
(g2371
S'P\x8dW?'
p5070
tp5071
Rp5072
aa(lp5073
g2
(g2371
S'\x90\xc25?'
p5074
tp5075
Rp5076
aa(lp5077
g2
(g2371
S'\xa7\x9bD?'
p5078
tp5079
Rp5080
aa(lp5081
g2
(g2371
S'^\xbaI?'
p5082
tp5083
Rp5084
aa(lp5085
g2
(g2371
S')\\O?'
p5086
tp5087
Rp5088
aa(lp5089
g2
(g2371
S'\xb8\x1eE?'
p5090
tp5091
Rp5092
aa(lp5093
g2
(g2371
S'm\xe7;?'
p5094
tp5095
Rp5096
aa(lp5097
g2
(g2371
S'\x03+G?'
p5098
tp5099
Rp5100
aa(lp5101
g2
(g2371
S')1H?'
p5102
tp5103
Rp5104
aa(lp5105
g2
(g2371
S'6^:?'
p5106
tp5107
Rp5108
aa(lp5109
g2
(g2371
S'\xf4\xfdT?'
p5110
tp5111
Rp5112
aa(lp5113
g2
(g2371
S'\xecQ8?'
p5114
tp5115
Rp5116
aa(lp5117
g2
(g2371
S'\xe0OM?'
p5118
tp5119
Rp5120
aa(lp5121
g2
(g2371
S'\xbbIL?'
p5122
tp5123
Rp5124
aa(lp5125
g2
(g2371
S'\x98nR?'
p5126
tp5127
Rp5128
aa(lp5129
g2
(g2371
S'\x13\xaeG?'
p5130
tp5131
Rp5132
aa(lp5133
g2
(g2371
S'\xed|??'
p5134
tp5135
Rp5136
aa(lp5137
g2
(g2371
S'n\x12C?'
p5138
tp5139
Rp5140
aa(lp5141
g2
(g2371
S'\\\x8fB?'
p5142
tp5143
Rp5144
aa(lp5145
g2
(g2371
S'E\xb63?'
p5146
tp5147
Rp5148
aa(lp5149
g2
(g2371
S'*\\O?'
p5150
tp5151
Rp5152
aa(lp5153
g2
(g2371
S'k\xbc4?'
p5154
tp5155
Rp5156
aa(lp5157
g2
(g2371
S'\x00\x00@?'
p5158
tp5159
Rp5160
aa(lp5161
g2
(g2371
S'\x17\xd9N?'
p5162
tp5163
Rp5164
aa(lp5165
g2
(g2371
S'\xd0\xf7S?'
p5166
tp5167
Rp5168
aa(lp5169
g2
(g2371
S'\x01\x00@?'
p5170
tp5171
Rp5172
aa(lp5173
g2
(g2371
S'6^:?'
p5174
tp5175
Rp5176
aa(lp5177
g2
(g2371
S'J\x0cB?'
p5178
tp5179
Rp5180
aa(lp5181
g2
(g2371
S'\xef\xa7F?'
p5182
tp5183
Rp5184
aa(lp5185
g2
(g2371
S'\xb6\xf3=?'
p5186
tp5187
Rp5188
aa(lp5189
g2
(g2371
S'\x98nR?'
p5190
tp5191
Rp5192
aa(lp5193
g2
(g2371
S'F\xb63?'
p5194
tp5195
Rp5196
aa(lp5197
g2
(g2371
S'\x00\x00@?'
p5198
tp5199
Rp5200
aa(lp5201
g2
(g2371
S'p=J?'
p5202
tp5203
Rp5204
aa(lp5205
g2
(g2371
S'\xbbIL?'
p5206
tp5207
Rp5208
aa(lp5209
g2
(g2371
S'\x00\x00@?'
p5210
tp5211
Rp5212
aa(lp5213
g2
(g2371
S'\x13\x83@?'
p5214
tp5215
Rp5216
aa(lp5217
g2
(g2371
S'\x91\xed<?'
p5218
tp5219
Rp5220
aa(lp5221
g2
(g2371
S'\x83\xc0J?'
p5222
tp5223
Rp5224
aa(lp5225
g2
(g2371
S'Y94?'
p5226
tp5227
Rp5228
aa(lp5229
g2
(g2371
S'\xce\xf7S?'
p5230
tp5231
Rp5232
aa(lp5233
g2
(g2371
S'\xa2E6?'
p5234
tp5235
Rp5236
aa(lp5237
g2
(g2371
S'I\x0cB?'
p5238
tp5239
Rp5240
aa(lp5241
g2
(g2371
S')\\O?'
p5242
tp5243
Rp5244
aa(lp5245
g2
(g2371
S'\x98nR?'
p5246
tp5247
Rp5248
aa(lp5249
g2
(g2371
S'H\xe1:?'
p5250
tp5251
Rp5252
aa(lp5253
g2
(g2371
S'H\xe1:?'
p5254
tp5255
Rp5256
aa(lp5257
g2
(g2371
S'q=J?'
p5258
tp5259
Rp5260
aa(lp5261
g2
(g2371
S'\\\x8fB?'
p5262
tp5263
Rp5264
aa(lp5265
g2
(g2371
S'"\xdb9?'
p5266
tp5267
Rp5268
aa(lp5269
g2
(g2371
S'\x9a\x99Y?'
p5270
tp5271
Rp5272
aa(lp5273
g2
(g2371
S'6^:?'
p5274
tp5275
Rp5276
aa(lp5277
g2
(g2371
S'(1H?'
p5278
tp5279
Rp5280
aa(lp5281
g2
(g2371
S'\x16\xaeG?'
p5282
tp5283
Rp5284
aa(lp5285
g2
(g2371
S'\x86\xebQ?'
p5286
tp5287
Rp5288
aa(lp5289
g2
(g2371
S'\xb8\x1eE?'
p5290
tp5291
Rp5292
aa(lp5293
g2
(g2371
S'\xee|??'
p5294
tp5295
Rp5296
aa(lp5297
g2
(g2371
S'\xa4p=?'
p5298
tp5299
Rp5300
aa(lp5301
g2
(g2371
S'n\x12C?'
p5302
tp5303
Rp5304
aa(lp5305
g2
(g2371
S'o\x12C?'
p5306
tp5307
Rp5308
aa(lp5309
g2
(g2371
S'>\nW?'
p5310
tp5311
Rp5312
aa(lp5313
g2
(g2371
S'433?'
p5314
tp5315
Rp5316
aa(lp5317
g2
(g2371
S'J\x0cB?'
p5318
tp5319
Rp5320
aa(lp5321
g2
(g2371
S'\x15\xaeG?'
p5322
tp5323
Rp5324
aa(lp5325
g2
(g2371
S'\x98nR?'
p5326
tp5327
Rp5328
aa(lp5329
g2
(g2371
S'\x00\x00@?'
p5330
tp5331
Rp5332
aa(lp5333
g2
(g2371
S'Zd;?'
p5334
tp5335
Rp5336
aa(lp5337
g2
(g2371
S'\\\x8fB?'
p5338
tp5339
Rp5340
aa(lp5341
g2
(g2371
S'o\x12C?'
p5342
tp5343
Rp5344
aa(lp5345
g2
(g2371
S'\x00\x00@?'
p5346
tp5347
Rp5348
aa(lp5349
g2
(g2371
S'\x05VN?'
p5350
tp5351
Rp5352
aa(lp5353
g2
(g2371
S'333?'
p5354
tp5355
Rp5356
aa(lp5357
g2
(g2371
S'\x82\x95C?'
p5358
tp5359
Rp5360
aa(lp5361
g2
(g2371
S'q=J?'
p5362
tp5363
Rp5364
aa(lp5365
g2
(g2371
S')\\O?'
p5366
tp5367
Rp5368
aa(lp5369
g2
(g2371
S'\xb9\x1eE?'
p5370
tp5371
Rp5372
aa(lp5373
g2
(g2371
S'5^:?'
p5374
tp5375
Rp5376
aa(lp5377
g2
(g2371
S'p=J?'
p5378
tp5379
Rp5380
aa(lp5381
g2
(g2371
S'\xb8\x1eE?'
p5382
tp5383
Rp5384
aa(lp5385
g2
(g2371
S'6^:?'
p5386
tp5387
Rp5388
aa(lp5389
g2
(g2371
S'\x04VN?'
p5390
tp5391
Rp5392
aa(lp5393
g2
(g2371
S'G\xe1:?'
p5394
tp5395
Rp5396
aa(lp5397
g2
(g2371
S'\x15\xaeG?'
p5398
tp5399
Rp5400
aa(lp5401
g2
(g2371
S'\xcd\xccL?'
p5402
tp5403
Rp5404
aa(lp5405
g2
(g2371
S'\x85\xebQ?'
p5406
tp5407
Rp5408
aa(lp5409
g2
(g2371
S'\x13\x83@?'
p5410
tp5411
Rp5412
aa(lp5413
g2
(g2371
S'\xa6\x9bD?'
p5414
tp5415
Rp5416
aa(lp5417
g2
(g2371
S'\\\x8fB?'
p5418
tp5419
Rp5420
aa(lp5421
g2
(g2371
S'q=J?'
p5422
tp5423
Rp5424
aa(lp5425
g2
(g2371
S'}?5?'
p5426
tp5427
Rp5428
aa(lp5429
g2
(g2371
S'\xcd\xccL?'
p5430
tp5431
Rp5432
aa(lp5433
g2
(g2371
S'\x10X9?'
p5434
tp5435
Rp5436
aa(lp5437
g2
(g2371
S'J\x0cB?'
p5438
tp5439
Rp5440
aa(lp5441
g2
(g2371
S'<\xdfO?'
p5442
tp5443
Rp5444
aa(lp5445
g2
(g2371
S'\xe2zT?'
p5446
tp5447
Rp5448
aa(lp5449
g2
(g2371
S'\xff\xff??'
p5450
tp5451
Rp5452
aa(lp5453
g2
(g2371
S'\x91\xed<?'
p5454
tp5455
Rp5456
aa(lp5457
g2
(g2371
S'\xb8\x1eE?'
p5458
tp5459
Rp5460
aa(lp5461
g2
(g2371
S'p=J?'
p5462
tp5463
Rp5464
aa(lp5465
g2
(g2371
S'\x8f\xc25?'
p5466
tp5467
Rp5468
aa(lp5469
g2
(g2371
S'\xbctS?'
p5470
tp5471
Rp5472
aa(lp5473
g2
(g2371
S'\xa5p=?'
p5474
tp5475
Rp5476
aa(lp5477
g2
(g2371
S'&1H?'
p5478
tp5479
Rp5480
aa(lp5481
g2
(g2371
S'*\\O?'
p5482
tp5483
Rp5484
aa(lp5485
g2
(g2371
S';\xdfO?'
p5486
tp5487
Rp5488
aa(lp5489
g2
(g2371
S'\xcb\xa1E?'
p5490
tp5491
Rp5492
aa(lp5493
g2
(g2371
S'\x92\xed<?'
p5494
tp5495
Rp5496
aa(lp5497
g2
(g2371
S'\x00\x00@?'
p5498
tp5499
Rp5500
aa(lp5501
g2
(g2371
S'\x15\xaeG?'
p5502
tp5503
Rp5504
aa(lp5505
g2
(g2371
S'Xd;?'
p5506
tp5507
Rp5508
aa(lp5509
g2
(g2371
S'\x82\xc0J?'
p5510
tp5511
Rp5512
aa(lp5513
g2
(g2371
S'\xd8\xa30?'
p5514
tp5515
Rp5516
aaa(lp5517
(lp5518
g2
(g2371
S'\xfa\xfa!@'
p5519
tp5520
Rp5521
aa(lp5522
g2
(g2371
S'\x98\t"@'
p5523
tp5524
Rp5525
aa(lp5526
g2
(g2371
S'\x97\x93!@'
p5527
tp5528
Rp5529
aa(lp5530
g2
(g2371
S'j2"@'
p5531
tp5532
Rp5533
aa(lp5534
g2
(g2371
S'\xac\x9a"@'
p5535
tp5536
Rp5537
aa(lp5538
g2
(g2371
S'\xa0\xf8!@'
p5539
tp5540
Rp5541
aa(lp5542
g2
(g2371
S'e\xe3!@'
p5543
tp5544
Rp5545
aa(lp5546
g2
(g2371
S'\x8f\xb7!@'
p5547
tp5548
Rp5549
aa(lp5550
g2
(g2371
S'\x89\xf5!@'
p5551
tp5552
Rp5553
aa(lp5554
g2
(g2371
S'*\xe3!@'
p5555
tp5556
Rp5557
aa(lp5558
g2
(g2371
S'\xa1P!@'
p5559
tp5560
Rp5561
aa(lp5562
g2
(g2371
S'\xecW!@'
p5563
tp5564
Rp5565
aa(lp5566
g2
(g2371
S'\xce*!@'
p5567
tp5568
Rp5569
aa(lp5570
g2
(g2371
S'\xd1l!@'
p5571
tp5572
Rp5573
aa(lp5574
g2
(g2371
S'=~!@'
p5575
tp5576
Rp5577
aa(lp5578
g2
(g2371
S'\xc5Z!@'
p5579
tp5580
Rp5581
aa(lp5582
g2
(g2371
S'rT!@'
p5583
tp5584
Rp5585
aa(lp5586
g2
(g2371
S'\x9c%!@'
p5587
tp5588
Rp5589
aa(lp5590
g2
(g2371
S'UG!@'
p5591
tp5592
Rp5593
aa(lp5594
g2
(g2371
S'p;!@'
p5595
tp5596
Rp5597
aa(lp5598
g2
(g2371
S',\x89 @'
p5599
tp5600
Rp5601
aa(lp5602
g2
(g2371
S'\xdd\x85 @'
p5603
tp5604
Rp5605
aa(lp5606
g2
(g2371
S'\x9c^ @'
p5607
tp5608
Rp5609
aa(lp5610
g2
(g2371
S':\x92 @'
p5611
tp5612
Rp5613
aa(lp5614
g2
(g2371
S'\xc1\x8e @'
p5615
tp5616
Rp5617
aa(lp5618
g2
(g2371
S'\xe4\x80 @'
p5619
tp5620
Rp5621
aa(lp5622
g2
(g2371
S'Fz @'
p5623
tp5624
Rp5625
aa(lp5626
g2
(g2371
S'kB @'
p5627
tp5628
Rp5629
aa(lp5630
g2
(g2371
S'<\x80 @'
p5631
tp5632
Rp5633
aa(lp5634
g2
(g2371
S'\xa1R @'
p5635
tp5636
Rp5637
aa(lp5638
g2
(g2371
S'\xbe\xde\x18@'
p5639
tp5640
Rp5641
aa(lp5642
g2
(g2371
S'cg\x15@'
p5643
tp5644
Rp5645
aa(lp5646
g2
(g2371
S'\xbca\x14@'
p5647
tp5648
Rp5649
aa(lp5650
g2
(g2371
S'\x9a\x07\x13@'
p5651
tp5652
Rp5653
aa(lp5654
g2
(g2371
S'.\r\x12@'
p5655
tp5656
Rp5657
aa(lp5658
g2
(g2371
S'\xe9,\x13@'
p5659
tp5660
Rp5661
aa(lp5662
g2
(g2371
S'\x93\x8c\x13@'
p5663
tp5664
Rp5665
aa(lp5666
g2
(g2371
S'\x9d\x07\x14@'
p5667
tp5668
Rp5669
aa(lp5670
g2
(g2371
S'I\x94\x18@'
p5671
tp5672
Rp5673
aa(lp5674
g2
(g2371
S'\xc3\xdf\x11@'
p5675
tp5676
Rp5677
aa(lp5678
g2
(g2371
S'L/\x14@'
p5679
tp5680
Rp5681
aa(lp5682
g2
(g2371
S'\x08T\x0e@'
p5683
tp5684
Rp5685
aa(lp5686
g2
(g2371
S'\x8d/\r@'
p5687
tp5688
Rp5689
aa(lp5690
g2
(g2371
S'>\xea\x0b@'
p5691
tp5692
Rp5693
aa(lp5694
g2
(g2371
S'k\xf2\x07@'
p5695
tp5696
Rp5697
aa(lp5698
g2
(g2371
S'\xf8q\n@'
p5699
tp5700
Rp5701
aa(lp5702
g2
(g2371
S'\xa7U\x0b@'
p5703
tp5704
Rp5705
aa(lp5706
g2
(g2371
S'\xc8Q\x0e@'
p5707
tp5708
Rp5709
aa(lp5710
g2
(g2371
S'\x00b\x16@'
p5711
tp5712
Rp5713
aa(lp5714
g2
(g2371
S'g\xf6\t@'
p5715
tp5716
Rp5717
aa(lp5718
g2
(g2371
S'\xe4\x16\x10@'
p5719
tp5720
Rp5721
aa(lp5722
g2
(g2371
S'\x86`\x0b@'
p5723
tp5724
Rp5725
aa(lp5726
g2
(g2371
S'N\xa3\x08@'
p5727
tp5728
Rp5729
aa(lp5730
g2
(g2371
S'\xcf\x93\t@'
p5731
tp5732
Rp5733
aa(lp5734
g2
(g2371
S'\x10\xd1\x04@'
p5735
tp5736
Rp5737
aa(lp5738
g2
(g2371
S'\xbdj\x07@'
p5739
tp5740
Rp5741
aa(lp5742
g2
(g2371
S'\xdf\xdc\x06@'
p5743
tp5744
Rp5745
aa(lp5746
g2
(g2371
S'\xf2 \n@'
p5747
tp5748
Rp5749
aa(lp5750
g2
(g2371
S'\xd2F\x12@'
p5751
tp5752
Rp5753
aa(lp5754
g2
(g2371
S'\x1d\xf9\x05@'
p5755
tp5756
Rp5757
aa(lp5758
g2
(g2371
S'\xf9\x9a\r@'
p5759
tp5760
Rp5761
aa(lp5762
g2
(g2371
S'i\xd0\n@'
p5763
tp5764
Rp5765
aa(lp5766
g2
(g2371
S'\xa3\x9e\x05@'
p5767
tp5768
Rp5769
aa(lp5770
g2
(g2371
S'lj\x08@'
p5771
tp5772
Rp5773
aa(lp5774
g2
(g2371
S'\xbc\xd7\x02@'
p5775
tp5776
Rp5777
aa(lp5778
g2
(g2371
S'\x80\xa9\x05@'
p5779
tp5780
Rp5781
aa(lp5782
g2
(g2371
S'\xa1\xae\x03@'
p5783
tp5784
Rp5785
aa(lp5786
g2
(g2371
S'\xeeB\x07@'
p5787
tp5788
Rp5789
aa(lp5790
g2
(g2371
S'\x8e\xaa\x0e@'
p5791
tp5792
Rp5793
aa(lp5794
g2
(g2371
S'#\xf1\x03@'
p5795
tp5796
Rp5797
aa(lp5798
g2
(g2371
S'\x83f\x0b@'
p5799
tp5800
Rp5801
aa(lp5802
g2
(g2371
S'\x89s\x07@'
p5803
tp5804
Rp5805
aa(lp5806
g2
(g2371
S'/e\x04@'
p5807
tp5808
Rp5809
aa(lp5810
g2
(g2371
S'#\x1e\x06@'
p5811
tp5812
Rp5813
aa(lp5814
g2
(g2371
S'Jf\xff?'
p5815
tp5816
Rp5817
aa(lp5818
g2
(g2371
S'w\xeb\x02@'
p5819
tp5820
Rp5821
aa(lp5822
g2
(g2371
S'\xf1\xb7\x02@'
p5823
tp5824
Rp5825
aa(lp5826
g2
(g2371
S'N\xec\x05@'
p5827
tp5828
Rp5829
aa(lp5830
g2
(g2371
S'\x00K\x0c@'
p5831
tp5832
Rp5833
aa(lp5834
g2
(g2371
S'q\n\x02@'
p5835
tp5836
Rp5837
aa(lp5838
g2
(g2371
S'\x918\t@'
p5839
tp5840
Rp5841
aa(lp5842
g2
(g2371
S'\xa8\x8d\x03@'
p5843
tp5844
Rp5845
aa(lp5846
g2
(g2371
S'N\x8c\x03@'
p5847
tp5848
Rp5849
aa(lp5850
g2
(g2371
S'\x10\x19\x04@'
p5851
tp5852
Rp5853
aa(lp5854
g2
(g2371
S'\x894\xf9?'
p5855
tp5856
Rp5857
aa(lp5858
g2
(g2371
S'\xce8\xff?'
p5859
tp5860
Rp5861
aa(lp5862
g2
(g2371
S'\x17\xdf\x01@'
p5863
tp5864
Rp5865
aa(lp5866
g2
(g2371
S'\x81\xbf\x04@'
p5867
tp5868
Rp5869
aa(lp5870
g2
(g2371
S'\x90e\t@'
p5871
tp5872
Rp5873
aa(lp5874
g2
(g2371
S'\xf7)\x00@'
p5875
tp5876
Rp5877
aa(lp5878
g2
(g2371
S'\xa3\n\x07@'
p5879
tp5880
Rp5881
aa(lp5882
g2
(g2371
S'\xe3\x85\xff?'
p5883
tp5884
Rp5885
aa(lp5886
g2
(g2371
S'\xec\x8e\x02@'
p5887
tp5888
Rp5889
aa(lp5890
g2
(g2371
S'\x9d\xdc\x01@'
p5891
tp5892
Rp5893
aa(lp5894
g2
(g2371
S'\xad\x8d\xf4?'
p5895
tp5896
Rp5897
aa(lp5898
g2
(g2371
S'\x00\xf7\xfb?'
p5899
tp5900
Rp5901
aa(lp5902
g2
(g2371
S'\xa4\x8c\xff?'
p5903
tp5904
Rp5905
aa(lp5906
g2
(g2371
S'\xa2\x85\x03@'
p5907
tp5908
Rp5909
aa(lp5910
g2
(g2371
S'\x198\x06@'
p5911
tp5912
Rp5913
aa(lp5914
g2
(g2371
S'J>\xfc?'
p5915
tp5916
Rp5917
aa(lp5918
g2
(g2371
S'7\x1a\x01@'
p5919
tp5920
Rp5921
aa(lp5922
g2
(g2371
S'\xdb\xcd\xf9?'
p5923
tp5924
Rp5925
aa(lp5926
g2
(g2371
S'\xc9*\xf8?'
p5927
tp5928
Rp5929
aa(lp5930
g2
(g2371
S'\x9c\xd1\xf8?'
p5931
tp5932
Rp5933
aa(lp5934
g2
(g2371
S'#!\xea?'
p5935
tp5936
Rp5937
aa(lp5938
g2
(g2371
S't6\xf0?'
p5939
tp5940
Rp5941
aa(lp5942
g2
(g2371
S'\x0f\xab\xf1?'
p5943
tp5944
Rp5945
aa(lp5946
g2
(g2371
S'\x02\xc7\xf9?'
p5947
tp5948
Rp5949
aa(lp5950
g2
(g2371
S'\xbf#\xff?'
p5951
tp5952
Rp5953
aa(lp5954
g2
(g2371
S'~+\xf0?'
p5955
tp5956
Rp5957
aa(lp5958
g2
(g2371
S'\x9fm\xfb?'
p5959
tp5960
Rp5961
aa(lp5962
g2
(g2371
S'\xcc\x1f\xef?'
p5963
tp5964
Rp5965
aa(lp5966
g2
(g2371
S'\x97\xe7\xf1?'
p5967
tp5968
Rp5969
aa(lp5970
g2
(g2371
S'\x1b(\xf0?'
p5971
tp5972
Rp5973
aa(lp5974
g2
(g2371
S'\x0e\x91\xe0?'
p5975
tp5976
Rp5977
aa(lp5978
g2
(g2371
S'B&\xea?'
p5979
tp5980
Rp5981
aa(lp5982
g2
(g2371
S's\xff\xe9?'
p5983
tp5984
Rp5985
aa(lp5986
g2
(g2371
S'\x8bC\xf2?'
p5987
tp5988
Rp5989
aa(lp5990
g2
(g2371
S'\x19\xbd\xf6?'
p5991
tp5992
Rp5993
aa(lp5994
g2
(g2371
S'\xab}\xe7?'
p5995
tp5996
Rp5997
aa(lp5998
g2
(g2371
S'\xb2o\xf4?'
p5999
tp6000
Rp6001
aa(lp6002
g2
(g2371
S'\xd2\xd7\xe7?'
p6003
tp6004
Rp6005
aa(lp6006
g2
(g2371
S'd\xd2\xea?'
p6007
tp6008
Rp6009
aa(lp6010
g2
(g2371
S'0A\xec?'
p6011
tp6012
Rp6013
aa(lp6014
g2
(g2371
S'\x01\x1f\xd7?'
p6015
tp6016
Rp6017
aa(lp6018
g2
(g2371
S'\x03\xc5\xe4?'
p6019
tp6020
Rp6021
aa(lp6022
g2
(g2371
S'\x92>\xe5?'
p6023
tp6024
Rp6025
aa(lp6026
g2
(g2371
S'Nh\xec?'
p6027
tp6028
Rp6029
aa(lp6030
g2
(g2371
S'L\xa7\xf0?'
p6031
tp6032
Rp6033
aa(lp6034
g2
(g2371
S'\xaa\x06\xe1?'
p6035
tp6036
Rp6037
aa(lp6038
g2
(g2371
S'$\x13\xef?'
p6039
tp6040
Rp6041
aa(lp6042
g2
(g2371
S'U\x18\xe3?'
p6043
tp6044
Rp6045
aa(lp6046
g2
(g2371
S'\xc5\xe5\xe4?'
p6047
tp6048
Rp6049
aa(lp6050
g2
(g2371
S'\xb6c\xe7?'
p6051
tp6052
Rp6053
aa(lp6054
g2
(g2371
S'\xfa\xf7\xcf?'
p6055
tp6056
Rp6057
aa(lp6058
g2
(g2371
S'\x8e3\xe2?'
p6059
tp6060
Rp6061
aa(lp6062
g2
(g2371
S'\xc2x\xdc?'
p6063
tp6064
Rp6065
aa(lp6066
g2
(g2371
S'[\x7f\xe6?'
p6067
tp6068
Rp6069
aa(lp6070
g2
(g2371
S'\xfb\x1a\xec?'
p6071
tp6072
Rp6073
aa(lp6074
g2
(g2371
S'x\xd8\xde?'
p6075
tp6076
Rp6077
aa(lp6078
g2
(g2371
S'.V\xeb?'
p6079
tp6080
Rp6081
aa(lp6082
g2
(g2371
S'\x08[\xdc?'
p6083
tp6084
Rp6085
aa(lp6086
g2
(g2371
S'\xc0\x93\xe0?'
p6087
tp6088
Rp6089
aa(lp6090
g2
(g2371
S'\x9b\x9d\xe3?'
p6091
tp6092
Rp6093
aa(lp6094
g2
(g2371
S'\x9f\xf0\xce?'
p6095
tp6096
Rp6097
aa(lp6098
g2
(g2371
S'\xa2\xac\xdc?'
p6099
tp6100
Rp6101
aa(lp6102
g2
(g2371
S'\xf8\xe1\xd9?'
p6103
tp6104
Rp6105
aa(lp6106
g2
(g2371
S'\xd2\x96\xe1?'
p6107
tp6108
Rp6109
aa(lp6110
g2
(g2371
S'\xfe<\xe9?'
p6111
tp6112
Rp6113
aa(lp6114
g2
(g2371
S'\xb8\x90\xd6?'
p6115
tp6116
Rp6117
aa(lp6118
g2
(g2371
S'{s\xe5?'
p6119
tp6120
Rp6121
aa(lp6122
g2
(g2371
S'v\x1a\xdc?'
p6123
tp6124
Rp6125
aa(lp6126
g2
(g2371
S'\x0c\x93\xdb?'
p6127
tp6128
Rp6129
aa(lp6130
g2
(g2371
S'\xcc\x87\xe1?'
p6131
tp6132
Rp6133
aa(lp6134
g2
(g2371
S'"V\xc6?'
p6135
tp6136
Rp6137
aa(lp6138
g2
(g2371
S'\xeeF\xd9?'
p6139
tp6140
Rp6141
aa(lp6142
g2
(g2371
S'~K\xd0?'
p6143
tp6144
Rp6145
aa(lp6146
g2
(g2371
S'u|\xda?'
p6147
tp6148
Rp6149
aa(lp6150
g2
(g2371
S'W[\xe0?'
p6151
tp6152
Rp6153
aa(lp6154
g2
(g2371
S'\x8au\xd6?'
p6155
tp6156
Rp6157
aa(lp6158
g2
(g2371
S'\x04\xb9\xe1?'
p6159
tp6160
Rp6161
aa(lp6162
g2
(g2371
S'\x9cj\xd4?'
p6163
tp6164
Rp6165
aa(lp6166
g2
(g2371
S'{x\xd7?'
p6167
tp6168
Rp6169
aa(lp6170
g2
(g2371
S'y\xf4\xd8?'
p6171
tp6172
Rp6173
aa(lp6174
g2
(g2371
S'QX\xc1?'
p6175
tp6176
Rp6177
aa(lp6178
g2
(g2371
S'\x992\xd2?'
p6179
tp6180
Rp6181
aa(lp6182
g2
(g2371
S'\xce\x9f\xcc?'
p6183
tp6184
Rp6185
aa(lp6186
g2
(g2371
S'#m\xd5?'
p6187
tp6188
Rp6189
aa(lp6190
g2
(g2371
S'\xc5q\xda?'
p6191
tp6192
Rp6193
aa(lp6194
g2
(g2371
S'\xb3=\xce?'
p6195
tp6196
Rp6197
aa(lp6198
g2
(g2371
S'\x08\xee\xdc?'
p6199
tp6200
Rp6201
aa(lp6202
g2
(g2371
S'\xad\xa3\xcf?'
p6203
tp6204
Rp6205
aa(lp6206
g2
(g2371
S'\xaed\xd0?'
p6207
tp6208
Rp6209
aa(lp6210
g2
(g2371
S'\xfa\xbe\xd5?'
p6211
tp6212
Rp6213
aa(lp6214
g2
(g2371
S'p8\xbd?'
p6215
tp6216
Rp6217
aa(lp6218
g2
(g2371
S'\xf2\xf2\xd0?'
p6219
tp6220
Rp6221
aa(lp6222
g2
(g2371
S'\xdc\x0f\xc8?'
p6223
tp6224
Rp6225
aa(lp6226
g2
(g2371
S'V9\xcf?'
p6227
tp6228
Rp6229
aa(lp6230
g2
(g2371
S'\x1eS\xd5?'
p6231
tp6232
Rp6233
aa(lp6234
g2
(g2371
S'A\x95\xc9?'
p6235
tp6236
Rp6237
aa(lp6238
g2
(g2371
S'Qj\xda?'
p6239
tp6240
Rp6241
aa(lp6242
g2
(g2371
S'h)\xcb?'
p6243
tp6244
Rp6245
aa(lp6246
g2
(g2371
S'P3\xcd?'
p6247
tp6248
Rp6249
aa(lp6250
g2
(g2371
S'\xc0\xfa\xd2?'
p6251
tp6252
Rp6253
aa(lp6254
g2
(g2371
S'pP\xb7?'
p6255
tp6256
Rp6257
aa(lp6258
g2
(g2371
S'l\x9b\xca?'
p6259
tp6260
Rp6261
aa(lp6262
g2
(g2371
S'p\xe3\xc2?'
p6263
tp6264
Rp6265
aa(lp6266
g2
(g2371
S'\xf2"\xcb?'
p6267
tp6268
Rp6269
aa(lp6270
g2
(g2371
S'\xb6#\xd1?'
p6271
tp6272
Rp6273
aa(lp6274
g2
(g2371
S'\xaf\xdc\xc7?'
p6275
tp6276
Rp6277
aa(lp6278
g2
(g2371
S'i\xb9\xd7?'
p6279
tp6280
Rp6281
aa(lp6282
g2
(g2371
S'n\xce\xc7?'
p6283
tp6284
Rp6285
aa(lp6286
g2
(g2371
S'\t\x9f\xc8?'
p6287
tp6288
Rp6289
aa(lp6290
g2
(g2371
S'\x1e\xf2\xcc?'
p6291
tp6292
Rp6293
aa(lp6294
g2
(g2371
S'\xd5q\xb6?'
p6295
tp6296
Rp6297
aa(lp6298
g2
(g2371
S':/\xc7?'
p6299
tp6300
Rp6301
aa(lp6302
g2
(g2371
S'\xbb\x80\xbf?'
p6303
tp6304
Rp6305
aa(lp6306
g2
(g2371
S'\x87x\xc4?'
p6307
tp6308
Rp6309
aa(lp6310
g2
(g2371
S'\xd0q\xc8?'
p6311
tp6312
Rp6313
aa(lp6314
g2
(g2371
S'\xacr\xc0?'
p6315
tp6316
Rp6317
aa(lp6318
g2
(g2371
S'\x0e\x83\xd4?'
p6319
tp6320
Rp6321
aa(lp6322
g2
(g2371
S'|\xea\xc2?'
p6323
tp6324
Rp6325
aa(lp6326
g2
(g2371
S'\xf1\xe5\xc3?'
p6327
tp6328
Rp6329
aa(lp6330
g2
(g2371
S'\xb1;\xc9?'
p6331
tp6332
Rp6333
aa(lp6334
g2
(g2371
S'\x92\x01\xad?'
p6335
tp6336
Rp6337
aa(lp6338
g2
(g2371
S'\x19\xd4\xc3?'
p6339
tp6340
Rp6341
aa(lp6342
g2
(g2371
S'\xaa\xa8\xbb?'
p6343
tp6344
Rp6345
aa(lp6346
g2
(g2371
S'd\x08\xc0?'
p6347
tp6348
Rp6349
aa(lp6350
g2
(g2371
S'"2\xc8?'
p6351
tp6352
Rp6353
aa(lp6354
g2
(g2371
S'\x90\x00\xc0?'
p6355
tp6356
Rp6357
aa(lp6358
g2
(g2371
S'\xce&\xd3?'
p6359
tp6360
Rp6361
aa(lp6362
g2
(g2371
S'\x0c\xf6\xba?'
p6363
tp6364
Rp6365
aa(lp6366
g2
(g2371
S'~\xe4\xc0?'
p6367
tp6368
Rp6369
aa(lp6370
g2
(g2371
S'8\xf0\xc5?'
p6371
tp6372
Rp6373
aa(lp6374
g2
(g2371
S':\xd1\xa7?'
p6375
tp6376
Rp6377
aa(lp6378
g2
(g2371
S'\xe7%\xbf?'
p6379
tp6380
Rp6381
aa(lp6382
g2
(g2371
S'\xcb\xd1\xb9?'
p6383
tp6384
Rp6385
aa(lp6386
g2
(g2371
S'\x14\xfc\xbb?'
p6387
tp6388
Rp6389
aa(lp6390
g2
(g2371
S'\x1b"\xc7?'
p6391
tp6392
Rp6393
aa(lp6394
g2
(g2371
S'^A\xbd?'
p6395
tp6396
Rp6397
aa(lp6398
g2
(g2371
S'N\xd0\xd0?'
p6399
tp6400
Rp6401
aa(lp6402
g2
(g2371
S'\x0c\xe0\xbe?'
p6403
tp6404
Rp6405
aa(lp6406
g2
(g2371
S'v\xe5\xbb?'
p6407
tp6408
Rp6409
aa(lp6410
g2
(g2371
S'\x11\x95\xc2?'
p6411
tp6412
Rp6413
aa(lp6414
g2
(g2371
S'\x94\x9f\xac?'
p6415
tp6416
Rp6417
aa(lp6418
g2
(g2371
S'L\x1f\xb8?'
p6419
tp6420
Rp6421
aa(lp6422
g2
(g2371
S'P+\xb9?'
p6423
tp6424
Rp6425
aa(lp6426
g2
(g2371
S'\x82\x98\xb8?'
p6427
tp6428
Rp6429
aa(lp6430
g2
(g2371
S'\xb6m\xbd?'
p6431
tp6432
Rp6433
aa(lp6434
g2
(g2371
S'B0\xb4?'
p6435
tp6436
Rp6437
aa(lp6438
g2
(g2371
S'\x97-\xcd?'
p6439
tp6440
Rp6441
aa(lp6442
g2
(g2371
S'Q\xce\xb6?'
p6443
tp6444
Rp6445
aa(lp6446
g2
(g2371
S'\xb0A\xb5?'
p6447
tp6448
Rp6449
aa(lp6450
g2
(g2371
S'\xbat\xbc?'
p6451
tp6452
Rp6453
aa(lp6454
g2
(g2371
S'(\xf6\xa5?'
p6455
tp6456
Rp6457
aa(lp6458
g2
(g2371
S'?}\xb3?'
p6459
tp6460
Rp6461
aa(lp6462
g2
(g2371
S'\xba.\xb4?'
p6463
tp6464
Rp6465
aa(lp6466
g2
(g2371
S'#a\xb0?'
p6467
tp6468
Rp6469
aa(lp6470
g2
(g2371
S'z\xa9\xba?'
p6471
tp6472
Rp6473
aa(lp6474
g2
(g2371
S'#\xa3\xb1?'
p6475
tp6476
Rp6477
aa(lp6478
g2
(g2371
S'+I\xc9?'
p6479
tp6480
Rp6481
aa(lp6482
g2
(g2371
S'\x93\x04\xb0?'
p6483
tp6484
Rp6485
aa(lp6486
g2
(g2371
S'\x05v\xb0?'
p6487
tp6488
Rp6489
aa(lp6490
g2
(g2371
S'\xbdj\xb8?'
p6491
tp6492
Rp6493
aa(lp6494
g2
(g2371
S'9C\x9c?'
p6495
tp6496
Rp6497
aa(lp6498
g2
(g2371
S'?\xa6\xb0?'
p6499
tp6500
Rp6501
aa(lp6502
g2
(g2371
S'\xdf\x18\xaf?'
p6503
tp6504
Rp6505
aa(lp6506
g2
(g2371
S'\x8eP\xad?'
p6507
tp6508
Rp6509
aa(lp6510
g2
(g2371
S'n\xa7\xb7?'
p6511
tp6512
Rp6513
aa(lp6514
g2
(g2371
S'\xf2\x83\xb0?'
p6515
tp6516
Rp6517
aa(lp6518
g2
(g2371
S'\x97\xed\xc8?'
p6519
tp6520
Rp6521
aa(lp6522
g2
(g2371
S'\x9f\xfe\xac?'
p6523
tp6524
Rp6525
aa(lp6526
g2
(g2371
S'\x9b\xf0\xaf?'
p6527
tp6528
Rp6529
aa(lp6530
g2
(g2371
S'\x94\xbe\xb1?'
p6531
tp6532
Rp6533
aa(lp6534
g2
(g2371
S'T\xf9\x98?'
p6535
tp6536
Rp6537
aa(lp6538
g2
(g2371
S'\x8b\xfa\xab?'
p6539
tp6540
Rp6541
aa(lp6542
g2
(g2371
S'P<\xab?'
p6543
tp6544
Rp6545
aa(lp6546
g2
(g2371
S'\xcd2\xa8?'
p6547
tp6548
Rp6549
aa(lp6550
g2
(g2371
S'W\xfe\xb5?'
p6551
tp6552
Rp6553
aa(lp6554
g2
(g2371
S'\xc2\xd7\xac?'
p6555
tp6556
Rp6557
aa(lp6558
g2
(g2371
S'Z\x1d\xc6?'
p6559
tp6560
Rp6561
aa(lp6562
g2
(g2371
S'\r\xae\xa9?'
p6563
tp6564
Rp6565
aa(lp6566
g2
(g2371
S'\xb7t\xa8?'
p6567
tp6568
Rp6569
aa(lp6570
g2
(g2371
S'\x16\x02\xb0?'
p6571
tp6572
Rp6573
aa(lp6574
g2
(g2371
S'\xf2\xf9\x93?'
p6575
tp6576
Rp6577
aa(lp6578
g2
(g2371
S'\xfb\x8a\xa8?'
p6579
tp6580
Rp6581
aa(lp6582
g2
(g2371
S'\x80\x99\xa9?'
p6583
tp6584
Rp6585
aa(lp6586
g2
(g2371
S'\x8cE\xa3?'
p6587
tp6588
Rp6589
aa(lp6590
g2
(g2371
S'\x90\xf6\xac?'
p6591
tp6592
Rp6593
aa(lp6594
g2
(g2371
S'o\x99\xa7?'
p6595
tp6596
Rp6597
aa(lp6598
g2
(g2371
S'cH\xc5?'
p6599
tp6600
Rp6601
aa(lp6602
g2
(g2371
S'\x05\xca\xa7?'
p6603
tp6604
Rp6605
aa(lp6606
g2
(g2371
S'\xe6\xc3\xa5?'
p6607
tp6608
Rp6609
aa(lp6610
g2
(g2371
S'\x07\xbb\xab?'
p6611
tp6612
Rp6613
aa(lp6614
g2
(g2371
S'\x00\x8d\x8d?'
p6615
tp6616
Rp6617
aa(lp6618
g2
(g2371
S'\x92\x85\xa6?'
p6619
tp6620
Rp6621
aa(lp6622
g2
(g2371
S'r\x8d\xa7?'
p6623
tp6624
Rp6625
aa(lp6626
g2
(g2371
S'\x90\x19\x9f?'
p6627
tp6628
Rp6629
aa(lp6630
g2
(g2371
S'\xb8\x91\xa7?'
p6631
tp6632
Rp6633
aa(lp6634
g2
(g2371
S'3\xdd\xa4?'
p6635
tp6636
Rp6637
aa(lp6638
g2
(g2371
S'd\x94\xbf?'
p6639
tp6640
Rp6641
aa(lp6642
g2
(g2371
S'\x97\t\xa6?'
p6643
tp6644
Rp6645
aa(lp6646
g2
(g2371
S'\xbe\x14\xa1?'
p6647
tp6648
Rp6649
aa(lp6650
g2
(g2371
S'~\x86\xac?'
p6651
tp6652
Rp6653
aa(lp6654
g2
(g2371
S'\xca\xbc\x8a?'
p6655
tp6656
Rp6657
aa(lp6658
g2
(g2371
S'\x8aa\xa4?'
p6659
tp6660
Rp6661
aa(lp6662
g2
(g2371
S'\x07\xb6\xa3?'
p6663
tp6664
Rp6665
aa(lp6666
g2
(g2371
S'\xe8B\x9f?'
p6667
tp6668
Rp6669
aa(lp6670
g2
(g2371
S'\x9e\xe8\xa5?'
p6671
tp6672
Rp6673
aa(lp6674
g2
(g2371
S'S\xac\xa2?'
p6675
tp6676
Rp6677
aa(lp6678
g2
(g2371
S'\x80\xf0\xbe?'
p6679
tp6680
Rp6681
aa(lp6682
g2
(g2371
S'\xc6\xc2\xa1?'
p6683
tp6684
Rp6685
aa(lp6686
g2
(g2371
S'\xd5\xc0\x9a?'
p6687
tp6688
Rp6689
aa(lp6690
g2
(g2371
S'f\xcd\xa5?'
p6691
tp6692
Rp6693
aa(lp6694
g2
(g2371
S'\xe2D\x88?'
p6695
tp6696
Rp6697
aa(lp6698
g2
(g2371
S'2Y\xa3?'
p6699
tp6700
Rp6701
aa(lp6702
g2
(g2371
S'j\x03\xa0?'
p6703
tp6704
Rp6705
aa(lp6706
g2
(g2371
S'\xf1\xa6\x96?'
p6707
tp6708
Rp6709
aa(lp6710
g2
(g2371
S'\xceL\xa1?'
p6711
tp6712
Rp6713
aa(lp6714
g2
(g2371
S'!\xfe\x9d?'
p6715
tp6716
Rp6717
aa(lp6718
g2
(g2371
S'[\xad\xbb?'
p6719
tp6720
Rp6721
aa(lp6722
g2
(g2371
S'N\x0c\xa1?'
p6723
tp6724
Rp6725
aa(lp6726
g2
(g2371
S'\x1d\xcf\x96?'
p6727
tp6728
Rp6729
aa(lp6730
g2
(g2371
S'P\x86\xa2?'
p6731
tp6732
Rp6733
aa(lp6734
g2
(g2371
S'\xff7\x87?'
p6735
tp6736
Rp6737
aa(lp6738
g2
(g2371
S'\xe7\xd2\x9c?'
p6739
tp6740
Rp6741
aa(lp6742
g2
(g2371
S'\xd3\xa9\x9b?'
p6743
tp6744
Rp6745
aa(lp6746
g2
(g2371
S'9}\x94?'
p6747
tp6748
Rp6749
aa(lp6750
g2
(g2371
S'%\xb1\x9c?'
p6751
tp6752
Rp6753
aa(lp6754
g2
(g2371
S'\x1b\xab\x98?'
p6755
tp6756
Rp6757
aa(lp6758
g2
(g2371
S'\x83\x07\xba?'
p6759
tp6760
Rp6761
aa(lp6762
g2
(g2371
S'\xeeC\x9e?'
p6763
tp6764
Rp6765
aa(lp6766
g2
(g2371
S'\xfc\xfd\x99?'
p6767
tp6768
Rp6769
aa(lp6770
g2
(g2371
S'`\x1c\x9f?'
p6771
tp6772
Rp6773
aa(lp6774
g2
(g2371
S'\xd9p\x81?'
p6775
tp6776
Rp6777
aa(lp6778
g2
(g2371
S'?g\x9d?'
p6779
tp6780
Rp6781
aa(lp6782
g2
(g2371
S'\xe6\x9e\x9c?'
p6783
tp6784
Rp6785
aa(lp6786
g2
(g2371
S'\x07H\x91?'
p6787
tp6788
Rp6789
aa(lp6790
g2
(g2371
S'3x\x9c?'
p6791
tp6792
Rp6793
aa(lp6794
g2
(g2371
S']g\x9b?'
p6795
tp6796
Rp6797
aa(lp6798
g2
(g2371
S'\xb0\x05\xbd?'
p6799
tp6800
Rp6801
aa(lp6802
g2
(g2371
S'_\xb6\x9f?'
p6803
tp6804
Rp6805
aa(lp6806
g2
(g2371
S'\x9a\x1c\x98?'
p6807
tp6808
Rp6809
aa(lp6810
g2
(g2371
S'i\xa5\x9d?'
p6811
tp6812
Rp6813
aa(lp6814
g2
(g2371
S'\x15Yx?'
p6815
tp6816
Rp6817
aa(lp6818
g2
(g2371
S'q\x08\x9f?'
p6819
tp6820
Rp6821
aa(lp6822
g2
(g2371
S'^\xbe\x9e?'
p6823
tp6824
Rp6825
aa(lp6826
g2
(g2371
S'\xccZ\x93?'
p6827
tp6828
Rp6829
aa(lp6830
g2
(g2371
S'Ju\x93?'
p6831
tp6832
Rp6833
aa(lp6834
g2
(g2371
S'v\x81\x96?'
p6835
tp6836
Rp6837
aa(lp6838
g2
(g2371
S'\x150\xb5?'
p6839
tp6840
Rp6841
aa(lp6842
g2
(g2371
S'\x0e1\x9b?'
p6843
tp6844
Rp6845
aa(lp6846
g2
(g2371
S'.s\x8d?'
p6847
tp6848
Rp6849
aa(lp6850
g2
(g2371
S'|A\x98?'
p6851
tp6852
Rp6853
aa(lp6854
g2
(g2371
S'\xc4\xd2u?'
p6855
tp6856
Rp6857
aa(lp6858
g2
(g2371
S'>\x95\x95?'
p6859
tp6860
Rp6861
aa(lp6862
g2
(g2371
S'\x04\xb5\x95?'
p6863
tp6864
Rp6865
aa(lp6866
g2
(g2371
S'\xd3\xbf\x8b?'
p6867
tp6868
Rp6869
aa(lp6870
g2
(g2371
S's\xaa\x90?'
p6871
tp6872
Rp6873
aa(lp6874
g2
(g2371
S'\xf5\r\x8f?'
p6875
tp6876
Rp6877
aa(lp6878
g2
(g2371
S'\x02\xf3\xb2?'
p6879
tp6880
Rp6881
aa(lp6882
g2
(g2371
S'\x9c\x89\x96?'
p6883
tp6884
Rp6885
aa(lp6886
g2
(g2371
S'Z\x98\x8c?'
p6887
tp6888
Rp6889
aa(lp6890
g2
(g2371
S'Z \x95?'
p6891
tp6892
Rp6893
aa(lp6894
g2
(g2371
S'\xd2\x98s?'
p6895
tp6896
Rp6897
aa(lp6898
g2
(g2371
S'\xcc\x0b\x96?'
p6899
tp6900
Rp6901
aa(lp6902
g2
(g2371
S'7:\x95?'
p6903
tp6904
Rp6905
aa(lp6906
g2
(g2371
S'\x1d\x9a\x87?'
p6907
tp6908
Rp6909
aa(lp6910
g2
(g2371
S'O\xc8\x8e?'
p6911
tp6912
Rp6913
aa(lp6914
g2
(g2371
S'\xa6\xe4\x8e?'
p6915
tp6916
Rp6917
aa(lp6918
g2
(g2371
S'O\xb2\xb1?'
p6919
tp6920
Rp6921
aa(lp6922
g2
(g2371
S'c\xaf\x99?'
p6923
tp6924
Rp6925
aa(lp6926
g2
(g2371
S'\x8aX\x8a?'
p6927
tp6928
Rp6929
aa(lp6930
g2
(g2371
S'\xc6E\x94?'
p6931
tp6932
Rp6933
aa(lp6934
g2
(g2371
S'J\xdbw?'
p6935
tp6936
Rp6937
aa(lp6938
g2
(g2371
S'\xc4\xf5\x93?'
p6939
tp6940
Rp6941
aa(lp6942
g2
(g2371
S'JX\x95?'
p6943
tp6944
Rp6945
aa(lp6946
g2
(g2371
S'\xaa)\x85?'
p6947
tp6948
Rp6949
aa(lp6950
g2
(g2371
S'Z\xc0\x8c?'
p6951
tp6952
Rp6953
aa(lp6954
g2
(g2371
S'6\n\x90?'
p6955
tp6956
Rp6957
aa(lp6958
g2
(g2371
S'\xeb\x8a\xac?'
p6959
tp6960
Rp6961
aa(lp6962
g2
(g2371
S'rf\x98?'
p6963
tp6964
Rp6965
aa(lp6966
g2
(g2371
S'\xd8\xbd\x85?'
p6967
tp6968
Rp6969
aa(lp6970
g2
(g2371
S'(H\x95?'
p6971
tp6972
Rp6973
aa(lp6974
g2
(g2371
S'?Pr?'
p6975
tp6976
Rp6977
aa(lp6978
g2
(g2371
S'\xe1\xc4\x90?'
p6979
tp6980
Rp6981
aa(lp6982
g2
(g2371
S'\xf2K\x8e?'
p6983
tp6984
Rp6985
aa(lp6986
g2
(g2371
S'F\x94\x83?'
p6987
tp6988
Rp6989
aa(lp6990
g2
(g2371
S'\xf9h\x87?'
p6991
tp6992
Rp6993
aa(lp6994
g2
(g2371
S'b\x0e\x89?'
p6995
tp6996
Rp6997
aa(lp6998
g2
(g2371
S'\xddC\xaf?'
p6999
tp7000
Rp7001
aa(lp7002
g2
(g2371
S'\xab\t\x9a?'
p7003
tp7004
Rp7005
aa(lp7006
g2
(g2371
S'1I\x89?'
p7007
tp7008
Rp7009
aa(lp7010
g2
(g2371
S'\x95B\x91?'
p7011
tp7012
Rp7013
aa(lp7014
g2
(g2371
S'wls?'
p7015
tp7016
Rp7017
aa(lp7018
g2
(g2371
S'\xb2E\x91?'
p7019
tp7020
Rp7021
aa(lp7022
g2
(g2371
S'D1\x94?'
p7023
tp7024
Rp7025
aa(lp7026
g2
(g2371
S'\x1c\xb2\x84?'
p7027
tp7028
Rp7029
aa(lp7030
g2
(g2371
S'\x99\xf0\x83?'
p7031
tp7032
Rp7033
aa(lp7034
g2
(g2371
S'\xadn\x88?'
p7035
tp7036
Rp7037
aa(lp7038
g2
(g2371
S'\x15\xba\xab?'
p7039
tp7040
Rp7041
aa(lp7042
g2
(g2371
S'\xb0\xbd\x92?'
p7043
tp7044
Rp7045
aa(lp7046
g2
(g2371
S'\x00}\x89?'
p7047
tp7048
Rp7049
aa(lp7050
g2
(g2371
S'\x07\xe5\x8e?'
p7051
tp7052
Rp7053
aa(lp7054
g2
(g2371
S'f\x07[?'
p7055
tp7056
Rp7057
aa(lp7058
g2
(g2371
S'\xf8\x97\x90?'
p7059
tp7060
Rp7061
aa(lp7062
g2
(g2371
S'\xa0J\x8d?'
p7063
tp7064
Rp7065
aa(lp7066
g2
(g2371
S'\xe1\x14\x80?'
p7067
tp7068
Rp7069
aa(lp7070
g2
(g2371
S'V\x19\x85?'
p7071
tp7072
Rp7073
aa(lp7074
g2
(g2371
S'"\xf1\x8a?'
p7075
tp7076
Rp7077
aa(lp7078
g2
(g2371
S'x\xa1\xa5?'
p7079
tp7080
Rp7081
aa(lp7082
g2
(g2371
S'r]\x94?'
p7083
tp7084
Rp7085
aa(lp7086
g2
(g2371
S'\xa1\xe5~?'
p7087
tp7088
Rp7089
aa(lp7090
g2
(g2371
S'\xf9B\x8c?'
p7091
tp7092
Rp7093
aa(lp7094
g2
(g2371
S']\xbd^?'
p7095
tp7096
Rp7097
aa(lp7098
g2
(g2371
S'\xac\x10\x8b?'
p7099
tp7100
Rp7101
aa(lp7102
g2
(g2371
S'\x00\xe8\x89?'
p7103
tp7104
Rp7105
aa(lp7106
g2
(g2371
S'\xabDz?'
p7107
tp7108
Rp7109
aa(lp7110
g2
(g2371
S'\x07\xb7z?'
p7111
tp7112
Rp7113
aa(lp7114
g2
(g2371
S'\xe2\xc9\x84?'
p7115
tp7116
Rp7117
aa(lp7118
g2
(g2371
S"'\x88\xa6?"
p7119
tp7120
Rp7121
aa(lp7122
g2
(g2371
S'#\xe2\x90?'
p7123
tp7124
Rp7125
aa(lp7126
g2
(g2371
S'{\xc4\x82?'
p7127
tp7128
Rp7129
aa(lp7130
g2
(g2371
S'\xa0\x88\x8a?'
p7131
tp7132
Rp7133
aa(lp7134
g2
(g2371
S'\xa6-V?'
p7135
tp7136
Rp7137
aa(lp7138
g2
(g2371
S'\xdf\xca\x8d?'
p7139
tp7140
Rp7141
aa(lp7142
g2
(g2371
S'i\xa9\x88?'
p7143
tp7144
Rp7145
aa(lp7146
g2
(g2371
S'\xbb|y?'
p7147
tp7148
Rp7149
aa(lp7150
g2
(g2371
S'\xe3\x88u?'
p7151
tp7152
Rp7153
aa(lp7154
g2
(g2371
S'@\xa7\x82?'
p7155
tp7156
Rp7157
aa(lp7158
g2
(g2371
S'(\xa2\xa2?'
p7159
tp7160
Rp7161
aa(lp7162
g2
(g2371
S'\xff\xce\x8f?'
p7163
tp7164
Rp7165
aa(lp7166
g2
(g2371
S'A\xb3~?'
p7167
tp7168
Rp7169
aa(lp7170
g2
(g2371
S'{\xca\x88?'
p7171
tp7172
Rp7173
aa(lp7174
g2
(g2371
S'l\xfbU?'
p7175
tp7176
Rp7177
aa(lp7178
g2
(g2371
S'8\x84\x8a?'
p7179
tp7180
Rp7181
aa(lp7182
g2
(g2371
S'P\x90\x87?'
p7183
tp7184
Rp7185
aa(lp7186
g2
(g2371
S'X\x0bv?'
p7187
tp7188
Rp7189
aa(lp7190
g2
(g2371
S"B'r?"
p7191
tp7192
Rp7193
aa(lp7194
g2
(g2371
S'\xa7\xd2\x80?'
p7195
tp7196
Rp7197
aa(lp7198
g2
(g2371
S'\rb\xa1?'
p7199
tp7200
Rp7201
aa(lp7202
g2
(g2371
S'\xc1\x17\x8e?'
p7203
tp7204
Rp7205
aa(lp7206
g2
(g2371
S'\xe4Z{?'
p7207
tp7208
Rp7209
aa(lp7210
g2
(g2371
S'\xe10\x87?'
p7211
tp7212
Rp7213
aa(lp7214
g2
(g2371
S',8U?'
p7215
tp7216
Rp7217
aa(lp7218
g2
(g2371
S'\x88M\x87?'
p7219
tp7220
Rp7221
aa(lp7222
g2
(g2371
S'o\xe9\x84?'
p7223
tp7224
Rp7225
aa(lp7226
g2
(g2371
S'W\xe9p?'
p7227
tp7228
Rp7229
aa(lp7230
g2
(g2371
S'uPo?'
p7231
tp7232
Rp7233
aa(lp7234
g2
(g2371
S'\xf0P~?'
p7235
tp7236
Rp7237
aa(lp7238
g2
(g2371
S'\x0b\xb1\x9b?'
p7239
tp7240
Rp7241
aa(lp7242
g2
(g2371
S'\x1c\xca\x8f?'
p7243
tp7244
Rp7245
aa(lp7246
g2
(g2371
S'd\xb3s?'
p7247
tp7248
Rp7249
aa(lp7250
g2
(g2371
S':\xc0\x88?'
p7251
tp7252
Rp7253
aa(lp7254
g2
(g2371
S'\xeb\xcaM?'
p7255
tp7256
Rp7257
aa(lp7258
g2
(g2371
S'WT\x86?'
p7259
tp7260
Rp7261
aa(lp7262
g2
(g2371
S'\x1b\x98\x81?'
p7263
tp7264
Rp7265
aa(lp7266
g2
(g2371
S'\x03\x90l?'
p7267
tp7268
Rp7269
aa(lp7270
g2
(g2371
S'\x99Qk?'
p7271
tp7272
Rp7273
aa(lp7274
g2
(g2371
S'8j\x84?'
p7275
tp7276
Rp7277
aa(lp7278
g2
(g2371
S'g\x0c\x9b?'
p7279
tp7280
Rp7281
aa(lp7282
g2
(g2371
S'h\xa3\x8a?'
p7283
tp7284
Rp7285
aa(lp7286
g2
(g2371
S'\x8a\xa4}?'
p7287
tp7288
Rp7289
aa(lp7290
g2
(g2371
S'q(\x87?'
p7291
tp7292
Rp7293
aa(lp7294
g2
(g2371
S'b\xf6E?'
p7295
tp7296
Rp7297
aa(lp7298
g2
(g2371
S'/$\x85?'
p7299
tp7300
Rp7301
aa(lp7302
g2
(g2371
S'\x9e\xb1\x80?'
p7303
tp7304
Rp7305
aa(lp7306
g2
(g2371
S'A\x97h?'
p7307
tp7308
Rp7309
aa(lp7310
g2
(g2371
S'\x9f8g?'
p7311
tp7312
Rp7313
aa(lp7314
g2
(g2371
S'\xc5\xb6\x81?'
p7315
tp7316
Rp7317
aa(lp7318
g2
(g2371
S'\xd7i\x99?'
p7319
tp7320
Rp7321
aa(lp7322
g2
(g2371
S'\xbe\xab\x85?'
p7323
tp7324
Rp7325
aa(lp7326
g2
(g2371
S'\xd6\x0ew?'
p7327
tp7328
Rp7329
aa(lp7330
g2
(g2371
S'\xac\x15\x81?'
p7331
tp7332
Rp7333
aa(lp7334
g2
(g2371
S'\xd2\xedC?'
p7335
tp7336
Rp7337
aa(lp7338
g2
(g2371
S'\xc6Y\x83?'
p7339
tp7340
Rp7341
aa(lp7342
g2
(g2371
S'\xab\xe4z?'
p7343
tp7344
Rp7345
aa(lp7346
g2
(g2371
S'\x03\xfea?'
p7347
tp7348
Rp7349
aa(lp7350
g2
(g2371
S'\x96\xdfg?'
p7351
tp7352
Rp7353
aa(lp7354
g2
(g2371
S'\xd0\x7f{?'
p7355
tp7356
Rp7357
aa(lp7358
g2
(g2371
S'\xa6Q\x95?'
p7359
tp7360
Rp7361
aa(lp7362
g2
(g2371
S'\xfa9\x89?'
p7363
tp7364
Rp7365
aa(lp7366
g2
(g2371
S'\xf6\xeag?'
p7367
tp7368
Rp7369
aa(lp7370
g2
(g2371
S'\x80\xdb\x85?'
p7371
tp7372
Rp7373
aa(lp7374
g2
(g2371
S'9"E?'
p7375
tp7376
Rp7377
aa(lp7378
g2
(g2371
S'\xe5\xd4|?'
p7379
tp7380
Rp7381
aa(lp7382
g2
(g2371
S'\xbd=p?'
p7383
tp7384
Rp7385
aa(lp7386
g2
(g2371
S'\xc0P\\?'
p7387
tp7388
Rp7389
aa(lp7390
g2
(g2371
S'\x03\xf1X?'
p7391
tp7392
Rp7393
aa(lp7394
g2
(g2371
S'!aw?'
p7395
tp7396
Rp7397
aa(lp7398
g2
(g2371
S'e^\x96?'
p7399
tp7400
Rp7401
aa(lp7402
g2
(g2371
S'\x1a}\x87?'
p7403
tp7404
Rp7405
aa(lp7406
g2
(g2371
S'\xdcld?'
p7407
tp7408
Rp7409
aa(lp7410
g2
(g2371
S'R\xe9\x82?'
p7411
tp7412
Rp7413
aa(lp7414
g2
(g2371
S'\x03\xe5A?'
p7415
tp7416
Rp7417
aa(lp7418
g2
(g2371
S'\xcc9{?'
p7419
tp7420
Rp7421
aa(lp7422
g2
(g2371
S'\xb0\xdfo?'
p7423
tp7424
Rp7425
aa(lp7426
g2
(g2371
S'\\\x04]?'
p7427
tp7428
Rp7429
aa(lp7430
g2
(g2371
S'\x94\xabV?'
p7431
tp7432
Rp7433
aa(lp7434
g2
(g2371
S'\xc6\xb2u?'
p7435
tp7436
Rp7437
aa(lp7438
g2
(g2371
S'{G\x94?'
p7439
tp7440
Rp7441
aa(lp7442
g2
(g2371
S'\x95\xed\x81?'
p7443
tp7444
Rp7445
aa(lp7446
g2
(g2371
S'N\xcee?'
p7447
tp7448
Rp7449
aa(lp7450
g2
(g2371
S'\x122\x81?'
p7451
tp7452
Rp7453
aa(lp7454
g2
(g2371
S'\x80\xb5A?'
p7455
tp7456
Rp7457
aa(lp7458
g2
(g2371
S'|\xc0z?'
p7459
tp7460
Rp7461
aa(lp7462
g2
(g2371
S'\x80\xado?'
p7463
tp7464
Rp7465
aa(lp7466
g2
(g2371
S'\xd8\xbbV?'
p7467
tp7468
Rp7469
aa(lp7470
g2
(g2371
S'p}R?'
p7471
tp7472
Rp7473
aa(lp7474
g2
(g2371
S'!\x01n?'
p7475
tp7476
Rp7477
aa(lp7478
g2
(g2371
S'\xc4~\x94?'
p7479
tp7480
Rp7481
aa(lp7482
g2
(g2371
S'\xd4i\x85?'
p7483
tp7484
Rp7485
aa(lp7486
g2
(g2371
S'\xae\x03b?'
p7487
tp7488
Rp7489
aa(lp7490
g2
(g2371
S'\xac\x08\x80?'
p7491
tp7492
Rp7493
aa(lp7494
g2
(g2371
S'\xca\xedG?'
p7495
tp7496
Rp7497
aa(lp7498
g2
(g2371
S'\xf5\xc5\x81?'
p7499
tp7500
Rp7501
aa(lp7502
g2
(g2371
S'\xc5\xebr?'
p7503
tp7504
Rp7505
aa(lp7506
g2
(g2371
S'~\xcee?'
p7507
tp7508
Rp7509
aa(lp7510
g2
(g2371
S';MT?'
p7511
tp7512
Rp7513
aa(lp7514
g2
(g2371
S'\xf1\xcdg?'
p7515
tp7516
Rp7517
aa(lp7518
g2
(g2371
S'\x97f\x90?'
p7519
tp7520
Rp7521
aa(lp7522
g2
(g2371
S'\xd8\x84\x80?'
p7523
tp7524
Rp7525
aa(lp7526
g2
(g2371
S'\xeb\x8aX?'
p7527
tp7528
Rp7529
aa(lp7530
g2
(g2371
S'\xaeY{?'
p7531
tp7532
Rp7533
aa(lp7534
g2
(g2371
S'[\xc8D?'
p7535
tp7536
Rp7537
aa(lp7538
g2
(g2371
S'\x90Bx?'
p7539
tp7540
Rp7541
aa(lp7542
g2
(g2371
S'\xe4{g?'
p7543
tp7544
Rp7545
aa(lp7546
g2
(g2371
S'h\xe7M?'
p7547
tp7548
Rp7549
aa(lp7550
g2
(g2371
S'u-O?'
p7551
tp7552
Rp7553
aa(lp7554
g2
(g2371
S'\xb0\x1dr?'
p7555
tp7556
Rp7557
aa(lp7558
g2
(g2371
S'\x81\xfb\x8e?'
p7559
tp7560
Rp7561
aa(lp7562
g2
(g2371
S'J\x9e~?'
p7563
tp7564
Rp7565
aa(lp7566
g2
(g2371
S'.\x91\\?'
p7567
tp7568
Rp7569
aa(lp7570
g2
(g2371
S'\x1evs?'
p7571
tp7572
Rp7573
aa(lp7574
g2
(g2371
S'\x97]=?'
p7575
tp7576
Rp7577
aa(lp7578
g2
(g2371
S'\x96\x80s?'
p7579
tp7580
Rp7581
aa(lp7582
g2
(g2371
S'\x96yf?'
p7583
tp7584
Rp7585
aa(lp7586
g2
(g2371
S'\n\xb4R?'
p7587
tp7588
Rp7589
aa(lp7590
g2
(g2371
S'\xee\xf0L?'
p7591
tp7592
Rp7593
aa(lp7594
g2
(g2371
S'\x1c\xc1b?'
p7595
tp7596
Rp7597
aa(lp7598
g2
(g2371
S'\x08\xf6\x8a?'
p7599
tp7600
Rp7601
aa(lp7602
g2
(g2371
S'\x0e?\x80?'
p7603
tp7604
Rp7605
aa(lp7606
g2
(g2371
S'\xbe\xdbW?'
p7607
tp7608
Rp7609
aa(lp7610
g2
(g2371
S'8\xafx?'
p7611
tp7612
Rp7613
aa(lp7614
g2
(g2371
S' ~7?'
p7615
tp7616
Rp7617
aa(lp7618
g2
(g2371
S'\x07yz?'
p7619
tp7620
Rp7621
aa(lp7622
g2
(g2371
S'\xd4,c?'
p7623
tp7624
Rp7625
aa(lp7626
g2
(g2371
S'\x17wL?'
p7627
tp7628
Rp7629
aa(lp7630
g2
(g2371
S'\x8c\x8bL?'
p7631
tp7632
Rp7633
aa(lp7634
g2
(g2371
S'DHm?'
p7635
tp7636
Rp7637
aa(lp7638
g2
(g2371
S'\x85\x83\x88?'
p7639
tp7640
Rp7641
aa(lp7642
g2
(g2371
S'\x1b\x8d}?'
p7643
tp7644
Rp7645
aa(lp7646
g2
(g2371
S'A\x16\\?'
p7647
tp7648
Rp7649
aa(lp7650
g2
(g2371
S'x\xbbr?'
p7651
tp7652
Rp7653
aa(lp7654
g2
(g2371
S'\xfaz??'
p7655
tp7656
Rp7657
aa(lp7658
g2
(g2371
S'\xa7_s?'
p7659
tp7660
Rp7661
aa(lp7662
g2
(g2371
S'\x9apa?'
p7663
tp7664
Rp7665
aa(lp7666
g2
(g2371
S'\x90\x85P?'
p7667
tp7668
Rp7669
aa(lp7670
g2
(g2371
S'\xc8\xe6M?'
p7671
tp7672
Rp7673
aa(lp7674
g2
(g2371
S'\x0f\x8a]?'
p7675
tp7676
Rp7677
aa(lp7678
g2
(g2371
S'\x96\x07\x88?'
p7679
tp7680
Rp7681
aa(lp7682
g2
(g2371
S'\xb4r{?'
p7683
tp7684
Rp7685
aa(lp7686
g2
(g2371
S'@\xe5X?'
p7687
tp7688
Rp7689
aa(lp7690
g2
(g2371
S'\x90\x9fq?'
p7691
tp7692
Rp7693
aa(lp7694
g2
(g2371
S'\xb0H6?'
p7695
tp7696
Rp7697
aa(lp7698
g2
(g2371
S'\x96dr?'
p7699
tp7700
Rp7701
aa(lp7702
g2
(g2371
S'By\\?'
p7703
tp7704
Rp7705
aa(lp7706
g2
(g2371
S'\x0ctO?'
p7707
tp7708
Rp7709
aa(lp7710
g2
(g2371
S'U\xf1I?'
p7711
tp7712
Rp7713
aa(lp7714
g2
(g2371
S'j\xbac?'
p7715
tp7716
Rp7717
aa(lp7718
g2
(g2371
S'h3\x8a?'
p7719
tp7720
Rp7721
aa(lp7722
g2
(g2371
S'^\xf1z?'
p7723
tp7724
Rp7725
aa(lp7726
g2
(g2371
S'\xd2\xf8Z?'
p7727
tp7728
Rp7729
aa(lp7730
g2
(g2371
S'\x90\xf0w?'
p7731
tp7732
Rp7733
aa(lp7734
g2
(g2371
S'\xbc\xcc6?'
p7735
tp7736
Rp7737
aa(lp7738
g2
(g2371
S'c}t?'
p7739
tp7740
Rp7741
aa(lp7742
g2
(g2371
S'\xbc\xa6d?'
p7743
tp7744
Rp7745
aa(lp7746
g2
(g2371
S'\xbd\xc4N?'
p7747
tp7748
Rp7749
aa(lp7750
g2
(g2371
S'\x13\x1d@?'
p7751
tp7752
Rp7753
aa(lp7754
g2
(g2371
S'\x92\x1fa?'
p7755
tp7756
Rp7757
aa(lp7758
g2
(g2371
S'A\x98\x85?'
p7759
tp7760
Rp7761
aa(lp7762
g2
(g2371
S' _o?'
p7763
tp7764
Rp7765
aa(lp7766
g2
(g2371
S'\xa0CS?'
p7767
tp7768
Rp7769
aa(lp7770
g2
(g2371
S'\xd3^g?'
p7771
tp7772
Rp7773
aa(lp7774
g2
(g2371
S'\xe5\x989?'
p7775
tp7776
Rp7777
aa(lp7778
g2
(g2371
S'\x91ok?'
p7779
tp7780
Rp7781
aa(lp7782
g2
(g2371
S'\xdcMV?'
p7783
tp7784
Rp7785
aa(lp7786
g2
(g2371
S'T\xe2E?'
p7787
tp7788
Rp7789
aa(lp7790
g2
(g2371
S'R\xe8I?'
p7791
tp7792
Rp7793
aa(lp7794
g2
(g2371
S'\xb0\xe0[?'
p7795
tp7796
Rp7797
aa(lp7798
g2
(g2371
S'\xdc\x85\x84?'
p7799
tp7800
Rp7801
aa(lp7802
g2
(g2371
S'\xcc\x1fq?'
p7803
tp7804
Rp7805
aa(lp7806
g2
(g2371
S'!\xf2O?'
p7807
tp7808
Rp7809
aa(lp7810
g2
(g2371
S'0\x91n?'
p7811
tp7812
Rp7813
aa(lp7814
g2
(g2371
S'\xe614?'
p7815
tp7816
Rp7817
aa(lp7818
g2
(g2371
S'\xb9\xa9l?'
p7819
tp7820
Rp7821
aa(lp7822
g2
(g2371
S'W+[?'
p7823
tp7824
Rp7825
aa(lp7826
g2
(g2371
S'=xF?'
p7827
tp7828
Rp7829
aa(lp7830
g2
(g2371
S'b\x9eC?'
p7831
tp7832
Rp7833
aa(lp7834
g2
(g2371
S'&e\\?'
p7835
tp7836
Rp7837
aa(lp7838
g2
(g2371
S'A\xf4\x87?'
p7839
tp7840
Rp7841
aa(lp7842
g2
(g2371
S's\nu?'
p7843
tp7844
Rp7845
aa(lp7846
g2
(g2371
S'eDQ?'
p7847
tp7848
Rp7849
aa(lp7850
g2
(g2371
S',Dn?'
p7851
tp7852
Rp7853
aa(lp7854
g2
(g2371
S'r\x037?'
p7855
tp7856
Rp7857
aa(lp7858
g2
(g2371
S'\x84:o?'
p7859
tp7860
Rp7861
aa(lp7862
g2
(g2371
S'\xc9\xfbZ?'
p7863
tp7864
Rp7865
aa(lp7866
g2
(g2371
S'GHF?'
p7867
tp7868
Rp7869
aa(lp7870
g2
(g2371
S'\x8c\xf0C?'
p7871
tp7872
Rp7873
aa(lp7874
g2
(g2371
S',UV?'
p7875
tp7876
Rp7877
aa(lp7878
g2
(g2371
S'k\xa3\x82?'
p7879
tp7880
Rp7881
aa(lp7882
g2
(g2371
S'\xff\xe0w?'
p7883
tp7884
Rp7885
aa(lp7886
g2
(g2371
S'\x83IF?'
p7887
tp7888
Rp7889
aa(lp7890
g2
(g2371
S'\xc8\xbbn?'
p7891
tp7892
Rp7893
aa(lp7894
g2
(g2371
S'\x03\x94;?'
p7895
tp7896
Rp7897
aa(lp7898
g2
(g2371
S'b\x1bm?'
p7899
tp7900
Rp7901
aa(lp7902
g2
(g2371
S'-\xb4Q?'
p7903
tp7904
Rp7905
aa(lp7906
g2
(g2371
S'\xdf\xaeK?'
p7907
tp7908
Rp7909
aa(lp7910
g2
(g2371
S'L\nF?'
p7911
tp7912
Rp7913
aa(lp7914
g2
(g2371
S'\xbf\x05S?'
p7915
tp7916
Rp7917
aa(lp7918
g2
(g2371
S'K\xdd\x82?'
p7919
tp7920
Rp7921
aa(lp7922
g2
(g2371
S'\xc4\x82n?'
p7923
tp7924
Rp7925
aa(lp7926
g2
(g2371
S'\xac^D?'
p7927
tp7928
Rp7929
aa(lp7930
g2
(g2371
S'\xe9!j?'
p7931
tp7932
Rp7933
aa(lp7934
g2
(g2371
S'\x04\xb10?'
p7935
tp7936
Rp7937
aa(lp7938
g2
(g2371
S'b5h?'
p7939
tp7940
Rp7941
aa(lp7942
g2
(g2371
S'DlM?'
p7943
tp7944
Rp7945
aa(lp7946
g2
(g2371
S'"9;?'
p7947
tp7948
Rp7949
aa(lp7950
g2
(g2371
S'\x1a\x07@?'
p7951
tp7952
Rp7953
aa(lp7954
g2
(g2371
S'\x83\x19\\?'
p7955
tp7956
Rp7957
aa(lp7958
g2
(g2371
S'\x17\xc0\x82?'
p7959
tp7960
Rp7961
aa(lp7962
g2
(g2371
S'2wh?'
p7963
tp7964
Rp7965
aa(lp7966
g2
(g2371
S'\x9b7E?'
p7967
tp7968
Rp7969
aa(lp7970
g2
(g2371
S'5\xd8f?'
p7971
tp7972
Rp7973
aa(lp7974
g2
(g2371
S'Mw3?'
p7975
tp7976
Rp7977
aa(lp7978
g2
(g2371
S'\xed\xa0m?'
p7979
tp7980
Rp7981
aa(lp7982
g2
(g2371
S'4\xcdO?'
p7983
tp7984
Rp7985
aa(lp7986
g2
(g2371
S'\xb4\x84A?'
p7987
tp7988
Rp7989
aa(lp7990
g2
(g2371
S'\xf3\xa6??'
p7991
tp7992
Rp7993
aa(lp7994
g2
(g2371
S'\xe8\xdaW?'
p7995
tp7996
Rp7997
aa(lp7998
g2
(g2371
S'=k\x81?'
p7999
tp8000
Rp8001
aa(lp8002
g2
(g2371
S'\xe9ee?'
p8003
tp8004
Rp8005
aa(lp8006
g2
(g2371
S'\x87\xffB?'
p8007
tp8008
Rp8009
aa(lp8010
g2
(g2371
S'\x95<l?'
p8011
tp8012
Rp8013
aa(lp8014
g2
(g2371
S'V\xf21?'
p8015
tp8016
Rp8017
aa(lp8018
g2
(g2371
S'\xfe\xaal?'
p8019
tp8020
Rp8021
aa(lp8022
g2
(g2371
S'\xb2!P?'
p8023
tp8024
Rp8025
aa(lp8026
g2
(g2371
S'\x12\xf1??'
p8027
tp8028
Rp8029
aa(lp8030
g2
(g2371
S'\x15\xc8D?'
p8031
tp8032
Rp8033
aa(lp8034
g2
(g2371
S'w.W?'
p8035
tp8036
Rp8037
aa(lp8038
g2
(g2371
S'\xe9*\x82?'
p8039
tp8040
Rp8041
aa(lp8042
g2
(g2371
S'E5n?'
p8043
tp8044
Rp8045
aa(lp8046
g2
(g2371
S'\xec\xd0C?'
p8047
tp8048
Rp8049
aa(lp8050
g2
(g2371
S'\x8c8m?'
p8051
tp8052
Rp8053
aa(lp8054
g2
(g2371
S'\xc5-,?'
p8055
tp8056
Rp8057
aa(lp8058
g2
(g2371
S'\xa6\xd2j?'
p8059
tp8060
Rp8061
aa(lp8062
g2
(g2371
S'\xdb{P?'
p8063
tp8064
Rp8065
aa(lp8066
g2
(g2371
S'\xfe\xe3>?'
p8067
tp8068
Rp8069
aa(lp8070
g2
(g2371
S'wnF?'
p8071
tp8072
Rp8073
aa(lp8074
g2
(g2371
S'l\x03U?'
p8075
tp8076
Rp8077
aa(lp8078
g2
(g2371
S'\x98$\x7f?'
p8079
tp8080
Rp8081
aa(lp8082
g2
(g2371
S'\x8b\x06f?'
p8083
tp8084
Rp8085
aa(lp8086
g2
(g2371
S'];D?'
p8087
tp8088
Rp8089
aa(lp8090
g2
(g2371
S'\rhk?'
p8091
tp8092
Rp8093
aa(lp8094
g2
(g2371
S'\x15\x9f/?'
p8095
tp8096
Rp8097
aa(lp8098
g2
(g2371
S'\xd5\xb8d?'
p8099
tp8100
Rp8101
aa(lp8102
g2
(g2371
S'\xdf\xa6K?'
p8103
tp8104
Rp8105
aa(lp8106
g2
(g2371
S'}y9?'
p8107
tp8108
Rp8109
aa(lp8110
g2
(g2371
S'\x9f\x85B?'
p8111
tp8112
Rp8113
aa(lp8114
g2
(g2371
S'}\x86R?'
p8115
tp8116
Rp8117
aa(lp8118
g2
(g2371
S'\x11\x92y?'
p8119
tp8120
Rp8121
aa(lp8122
g2
(g2371
S'\xa6\xe1i?'
p8123
tp8124
Rp8125
aa(lp8126
g2
(g2371
S'v\xfa>?'
p8127
tp8128
Rp8129
aa(lp8130
g2
(g2371
S'\x9bsn?'
p8131
tp8132
Rp8133
aa(lp8134
g2
(g2371
S"'\xca/?"
p8135
tp8136
Rp8137
aa(lp8138
g2
(g2371
S'Z\xb3b?'
p8139
tp8140
Rp8141
aa(lp8142
g2
(g2371
S'|\xa6J?'
p8143
tp8144
Rp8145
aa(lp8146
g2
(g2371
S'\xb1\xc0<?'
p8147
tp8148
Rp8149
aa(lp8150
g2
(g2371
S'\xa9\xeaC?'
p8151
tp8152
Rp8153
aa(lp8154
g2
(g2371
S'\xb3e\\?'
p8155
tp8156
Rp8157
aa(lp8158
g2
(g2371
S'\x07q|?'
p8159
tp8160
Rp8161
aa(lp8162
g2
(g2371
S'\x06\xd5j?'
p8163
tp8164
Rp8165
aa(lp8166
g2
(g2371
S'p\x89A?'
p8167
tp8168
Rp8169
aa(lp8170
g2
(g2371
S'a\x93g?'
p8171
tp8172
Rp8173
aa(lp8174
g2
(g2371
S'\x9f\x013?'
p8175
tp8176
Rp8177
aa(lp8178
g2
(g2371
S'\xa6\xc4a?'
p8179
tp8180
Rp8181
aa(lp8182
g2
(g2371
S'\xa6\xb8H?'
p8183
tp8184
Rp8185
aa(lp8186
g2
(g2371
S'65A?'
p8187
tp8188
Rp8189
aa(lp8190
g2
(g2371
S'9\xe7??'
p8191
tp8192
Rp8193
aa(lp8194
g2
(g2371
S'\xe2\xfbM?'
p8195
tp8196
Rp8197
aa(lp8198
g2
(g2371
S'\xcb5|?'
p8199
tp8200
Rp8201
aa(lp8202
g2
(g2371
S'<ue?'
p8203
tp8204
Rp8205
aa(lp8206
g2
(g2371
S'B)@?'
p8207
tp8208
Rp8209
aa(lp8210
g2
(g2371
S'Bmi?'
p8211
tp8212
Rp8213
aa(lp8214
g2
(g2371
S'px-?'
p8215
tp8216
Rp8217
aa(lp8218
g2
(g2371
S'<\xc7c?'
p8219
tp8220
Rp8221
aa(lp8222
g2
(g2371
S'\xa8\x18H?'
p8223
tp8224
Rp8225
aa(lp8226
g2
(g2371
S'\xf6\x02??'
p8227
tp8228
Rp8229
aa(lp8230
g2
(g2371
S'N\xa5J?'
p8231
tp8232
Rp8233
aa(lp8234
g2
(g2371
S'aZN?'
p8235
tp8236
Rp8237
aa(lp8238
g2
(g2371
S'\x87sr?'
p8239
tp8240
Rp8241
aa(lp8242
g2
(g2371
S'\x19\xa9_?'
p8243
tp8244
Rp8245
aa(lp8246
g2
(g2371
S'RM??'
p8247
tp8248
Rp8249
aa(lp8250
g2
(g2371
S'd\x03i?'
p8251
tp8252
Rp8253
aa(lp8254
g2
(g2371
S'f\xde/?'
p8255
tp8256
Rp8257
aa(lp8258
g2
(g2371
S'\xa6\xae[?'
p8259
tp8260
Rp8261
aa(lp8262
g2
(g2371
S'\x92?@?'
p8263
tp8264
Rp8265
aa(lp8266
g2
(g2371
S'Tr<?'
p8267
tp8268
Rp8269
aa(lp8270
g2
(g2371
S'\x19\x02B?'
p8271
tp8272
Rp8273
aa(lp8274
g2
(g2371
S'\x8alJ?'
p8275
tp8276
Rp8277
aa(lp8278
g2
(g2371
S'\x8f\x01y?'
p8279
tp8280
Rp8281
aa(lp8282
g2
(g2371
S'\x95\xd3d?'
p8283
tp8284
Rp8285
aa(lp8286
g2
(g2371
S'\xaa[>?'
p8287
tp8288
Rp8289
aa(lp8290
g2
(g2371
S'l\xa0l?'
p8291
tp8292
Rp8293
aa(lp8294
g2
(g2371
S'R\xd64?'
p8295
tp8296
Rp8297
aa(lp8298
g2
(g2371
S'\x84M^?'
p8299
tp8300
Rp8301
aa(lp8302
g2
(g2371
S'0\xfcF?'
p8303
tp8304
Rp8305
aa(lp8306
g2
(g2371
S'\xe5\xe1:?'
p8307
tp8308
Rp8309
aa(lp8310
g2
(g2371
S'\x8e\xb0??'
p8311
tp8312
Rp8313
aa(lp8314
g2
(g2371
S'\xc8\x19L?'
p8315
tp8316
Rp8317
aa(lp8318
g2
(g2371
S'=.o?'
p8319
tp8320
Rp8321
aa(lp8322
g2
(g2371
S'\xb5\xa3^?'
p8323
tp8324
Rp8325
aa(lp8326
g2
(g2371
S'\x02\xa47?'
p8327
tp8328
Rp8329
aa(lp8330
g2
(g2371
S'\x05ef?'
p8331
tp8332
Rp8333
aa(lp8334
g2
(g2371
S'\x14\xd7/?'
p8335
tp8336
Rp8337
aa(lp8338
g2
(g2371
S'\xb4\x8da?'
p8339
tp8340
Rp8341
aa(lp8342
g2
(g2371
S'\xa0\xcfB?'
p8343
tp8344
Rp8345
aa(lp8346
g2
(g2371
S'm\xa0>?'
p8347
tp8348
Rp8349
aa(lp8350
g2
(g2371
S'\x86JI?'
p8351
tp8352
Rp8353
aa(lp8354
g2
(g2371
S'\t\xedP?'
p8355
tp8356
Rp8357
aa(lp8358
g2
(g2371
S'\xc4\x0cs?'
p8359
tp8360
Rp8361
aa(lp8362
g2
(g2371
S'\x8e\xf8c?'
p8363
tp8364
Rp8365
aa(lp8366
g2
(g2371
S'\x90\x016?'
p8367
tp8368
Rp8369
aa(lp8370
g2
(g2371
S'\xff\x93i?'
p8371
tp8372
Rp8373
aa(lp8374
g2
(g2371
S'"\x070?'
p8375
tp8376
Rp8377
aa(lp8378
g2
(g2371
S'\xa48_?'
p8379
tp8380
Rp8381
aa(lp8382
g2
(g2371
S'^UB?'
p8383
tp8384
Rp8385
aa(lp8386
g2
(g2371
S'\xd8\xd88?'
p8387
tp8388
Rp8389
aa(lp8390
g2
(g2371
S'\x90\xcdD?'
p8391
tp8392
Rp8393
aa(lp8394
g2
(g2371
S'x\xdbT?'
p8395
tp8396
Rp8397
aa(lp8398
g2
(g2371
S'wMs?'
p8399
tp8400
Rp8401
aa(lp8402
g2
(g2371
S'\xde2b?'
p8403
tp8404
Rp8405
aa(lp8406
g2
(g2371
S'>\xa5<?'
p8407
tp8408
Rp8409
aa(lp8410
g2
(g2371
S'\xf8\x95k?'
p8411
tp8412
Rp8413
aa(lp8414
g2
(g2371
S'\xbb\xe1-?'
p8415
tp8416
Rp8417
aa(lp8418
g2
(g2371
S'\x85\xd1Z?'
p8419
tp8420
Rp8421
aa(lp8422
g2
(g2371
S'\xbe\xdbE?'
p8423
tp8424
Rp8425
aa(lp8426
g2
(g2371
S'|\xda<?'
p8427
tp8428
Rp8429
aa(lp8430
g2
(g2371
S'\x82\xb2B?'
p8431
tp8432
Rp8433
aa(lp8434
g2
(g2371
S'\xe2aL?'
p8435
tp8436
Rp8437
aa(lp8438
g2
(g2371
S'5\xc9x?'
p8439
tp8440
Rp8441
aa(lp8442
g2
(g2371
S'>\n_?'
p8443
tp8444
Rp8445
aa(lp8446
g2
(g2371
S'P\x9f8?'
p8447
tp8448
Rp8449
aa(lp8450
g2
(g2371
S'\xef\xa7a?'
p8451
tp8452
Rp8453
aa(lp8454
g2
(g2371
S'\xb0\x8d/?'
p8455
tp8456
Rp8457
aa(lp8458
g2
(g2371
S'\xfaz_?'
p8459
tp8460
Rp8461
aa(lp8462
g2
(g2371
S'&\xe8C?'
p8463
tp8464
Rp8465
aa(lp8466
g2
(g2371
S'\xf3b7?'
p8467
tp8468
Rp8469
aa(lp8470
g2
(g2371
S'*\x1c=?'
p8471
tp8472
Rp8473
aa(lp8474
g2
(g2371
S'D\xd2P?'
p8475
tp8476
Rp8477
aa(lp8478
g2
(g2371
S'\xf4\x1br?'
p8479
tp8480
Rp8481
aa(lp8482
g2
(g2371
S'T\xb1Z?'
p8483
tp8484
Rp8485
aa(lp8486
g2
(g2371
S'\x1ei:?'
p8487
tp8488
Rp8489
aa(lp8490
g2
(g2371
S'#7a?'
p8491
tp8492
Rp8493
aa(lp8494
g2
(g2371
S'\xce\xcd+?'
p8495
tp8496
Rp8497
aa(lp8498
g2
(g2371
S'\xd0"`?'
p8499
tp8500
Rp8501
aa(lp8502
g2
(g2371
S'\x04\xc9F?'
p8503
tp8504
Rp8505
aa(lp8506
g2
(g2371
S'\xf1\xba8?'
p8507
tp8508
Rp8509
aa(lp8510
g2
(g2371
S'!\xdcC?'
p8511
tp8512
Rp8513
aa(lp8514
g2
(g2371
S"\xf0'M?"
p8515
tp8516
Rp8517
aa(lp8518
g2
(g2371
S'\xd7>q?'
p8519
tp8520
Rp8521
aa(lp8522
g2
(g2371
S'\x8c\xcdb?'
p8523
tp8524
Rp8525
aa(lp8526
g2
(g2371
S'A+8?'
p8527
tp8528
Rp8529
aa(lp8530
g2
(g2371
S'.\\h?'
p8531
tp8532
Rp8533
aa(lp8534
g2
(g2371
S'z,2?'
p8535
tp8536
Rp8537
aa(lp8538
g2
(g2371
S'\xb6\x06W?'
p8539
tp8540
Rp8541
aa(lp8542
g2
(g2371
S'\x88\x88>?'
p8543
tp8544
Rp8545
aa(lp8546
g2
(g2371
S'\x086:?'
p8547
tp8548
Rp8549
aa(lp8550
g2
(g2371
S'Rh??'
p8551
tp8552
Rp8553
aa(lp8554
g2
(g2371
S'\x90{I?'
p8555
tp8556
Rp8557
aa(lp8558
g2
(g2371
S'<"k?'
p8559
tp8560
Rp8561
aa(lp8562
g2
(g2371
S'nqa?'
p8563
tp8564
Rp8565
aa(lp8566
g2
(g2371
S')M+?'
p8567
tp8568
Rp8569
aa(lp8570
g2
(g2371
S'<\xa8`?'
p8571
tp8572
Rp8573
aa(lp8574
g2
(g2371
S'\x13`7?'
p8575
tp8576
Rp8577
aa(lp8578
g2
(g2371
S'\xaa\x13\\?'
p8579
tp8580
Rp8581
aa(lp8582
g2
(g2371
S'\xe6MD?'
p8583
tp8584
Rp8585
aa(lp8586
g2
(g2371
S'\xd1\xee4?'
p8587
tp8588
Rp8589
aa(lp8590
g2
(g2371
S'\xd53:?'
p8591
tp8592
Rp8593
aa(lp8594
g2
(g2371
S'R\x8bO?'
p8595
tp8596
Rp8597
aa(lp8598
g2
(g2371
S'N\xebo?'
p8599
tp8600
Rp8601
aa(lp8602
g2
(g2371
S'\xf2\xdd[?'
p8603
tp8604
Rp8605
aa(lp8606
g2
(g2371
S'/e2?'
p8607
tp8608
Rp8609
aa(lp8610
g2
(g2371
S'\x02Vh?'
p8611
tp8612
Rp8613
aa(lp8614
g2
(g2371
S'J\xc2-?'
p8615
tp8616
Rp8617
aa(lp8618
g2
(g2371
S'\xd2\xc0]?'
p8619
tp8620
Rp8621
aa(lp8622
g2
(g2371
S',\xc0>?'
p8623
tp8624
Rp8625
aa(lp8626
g2
(g2371
S'0v5?'
p8627
tp8628
Rp8629
aa(lp8630
g2
(g2371
S'K\x06<?'
p8631
tp8632
Rp8633
aa(lp8634
g2
(g2371
S'\x90\xf9H?'
p8635
tp8636
Rp8637
aa(lp8638
g2
(g2371
S'#\xc2o?'
p8639
tp8640
Rp8641
aa(lp8642
g2
(g2371
S'\x88\xb6_?'
p8643
tp8644
Rp8645
aa(lp8646
g2
(g2371
S'\xd0\xb58?'
p8647
tp8648
Rp8649
aa(lp8650
g2
(g2371
S'\x1c\x16j?'
p8651
tp8652
Rp8653
aa(lp8654
g2
(g2371
S'\x0c\xc10?'
p8655
tp8656
Rp8657
aa(lp8658
g2
(g2371
S'\xa5\x9f\\?'
p8659
tp8660
Rp8661
aaa.